
bomb:     file format elf32-i386

Contents of section .interp:
 80480f4 2f6c6962 2f6c642d 6c696e75 782e736f  /lib/ld-linux.so
 8048104 2e3200                               .2.             
Contents of section .note.ABI-tag:
 8048108 04000000 10000000 01000000 474e5500  ............GNU.
 8048118 00000000 02000000 00000000 00000000  ................
Contents of section .hash:
 8048128 11000000 22000000 0e000000 00000000  ...."...........
 8048138 1e000000 12000000 0f000000 00000000  ................
 8048148 14000000 16000000 18000000 01000000  ................
 8048158 1d000000 0c000000 21000000 1c000000  ........!.......
 8048168 0d000000 20000000 17000000 00000000  .... ...........
 8048178 00000000 00000000 00000000 00000000  ................
 8048188 00000000 05000000 00000000 04000000  ................
 8048198 03000000 07000000 00000000 00000000  ................
 80481a8 09000000 08000000 00000000 00000000  ................
 80481b8 00000000 02000000 00000000 13000000  ................
 80481c8 00000000 10000000 00000000 06000000  ................
 80481d8 0b000000 11000000 1a000000 15000000  ................
 80481e8 1b000000 19000000 0a000000 1f000000  ................
 80481f8 00000000                             ....            
Contents of section .dynsym:
 80481fc 00000000 00000000 00000000 00000000  ................
 804820c 1f010000 20870408 74000000 22000000  .... ...t..."...
 804821c 35010000 30870408 37000000 12000000  5...0...7.......
 804822c 91000000 40870408 24000000 12000000  ....@...$.......
 804823c 60000000 50870408 81000000 12000000  `...P...........
 804824c 41000000 60870408 e0000000 12000000  A...`...........
 804825c b7000000 70870408 b5000000 12000000  ....p...........
 804826c 7c000000 80870408 98000000 12000000  |...............
 804827c be000000 90870408 7f000000 12000000  ................
 804828c ec000000 a0870408 73000000 12000000  ........s.......
 804829c 68000000 b0870408 9e020000 12000000  h...............
 80482ac 99000000 c0870408 a2000000 22000000  ............"...
 80482bc 28000000 40b60408 04000000 11001600  (...@...........
 80482cc 5a000000 d0870408 ca000000 12000000  Z...............
 80482dc 6f000000 e0870408 76010000 12000000  o.......v.......
 80482ec 48000000 f0870408 52040000 12000000  H.......R.......
 80482fc 0d010000 00880408 05010000 12000000  ................
 804830c 21000000 10880408 29000000 12000000  !.......).......
 804831c e5000000 20880408 f5000000 12000000  .... ...........
 804832c cf000000 30880408 80050000 12000000  ....0...........
 804833c 83000000 40880408 33000000 12000000  ....@...3.......
 804834c f3000000 50880408 e8000000 12000000  ....P...........
 804835c c4000000 60880408 24000000 12000000  ....`...$.......
 804836c 37000000 44b60408 04000000 11001600  7...D...........
 804837c 2f000000 70880408 3a000000 12000000  /...p...:.......
 804838c b1000000 48b60408 04000000 11001600  ....H...........
 804839c f8000000 80880408 79000000 12000000  ........y.......
 80483ac cb000000 90880408 37000000 12000000  ........7.......
 80483bc fe000000 04960408 04000000 11000f00  ................
 80483cc dd000000 a0880408 24000000 12000000  ........$.......
 80483dc 75000000 b0880408 3a000000 12000000  u.......:.......
 80483ec 89000000 c0880408 7e000000 12000000  ........~.......
 80483fc 01000000 00000000 00000000 20000000  ............ ...
 804840c 1a000000 d0880408 22000000 12000000  ........".......
Contents of section .dynstr:
 804841c 005f5f67 6d6f6e5f 73746172 745f5f00  .__gmon_start__.
 804842c 6c696263 2e736f2e 36007374 72637079  libc.so.6.strcpy
 804843c 00707269 6e746600 7374646f 75740063  .printf.stdout.c
 804844c 6f6e6e65 6374005f 5f637479 70655f62  onnect.__ctype_b
 804845c 00676574 656e7600 5f5f7374 72746f6c  .getenv.__strtol
 804846c 5f696e74 65726e61 6c006667 65747300  _internal.fgets.
 804847c 746d7066 696c6500 73797374 656d0073  tmpfile.system.s
 804848c 6c656570 00736f63 6b657400 66666c75  leep.socket.fflu
 804849c 73680062 7a65726f 00637573 65726964  sh.bzero.cuserid
 80484ac 00667072 696e7466 005f5f64 65726567  .fprintf.__dereg
 80484bc 69737465 725f6672 616d655f 696e666f  ister_frame_info
 80484cc 00737464 696e0073 69676e61 6c006263  .stdin.signal.bc
 80484dc 6f707900 73736361 6e660064 75700067  opy.sscanf.dup.g
 80484ec 6574686f 73746279 6e616d65 00737072  ethostbyname.spr
 80484fc 696e7466 0066636c 6f736500 72657769  intf.fclose.rewi
 804850c 6e640065 78697400 666f7065 6e005f49  nd.exit.fopen._I
 804851c 4f5f7374 64696e5f 75736564 005f5f6c  O_stdin_used.__l
 804852c 6962635f 73746172 745f6d61 696e005f  ibc_start_main._
 804853c 5f726567 69737465 725f6672 616d655f  _register_frame_
 804854c 696e666f 00636c6f 73650047 4c494243  info.close.GLIBC
 804855c 5f322e31 00474c49 42435f32 2e3000    _2.1.GLIBC_2.0. 
Contents of section .gnu.version:
 804856c 00000200 02000200 03000200 02000200  ................
 804857c 02000200 02000200 02000200 02000200  ................
 804858c 02000200 03000200 02000200 02000200  ................
 804859c 02000200 03000200 01000200 02000200  ................
 80485ac 00000200                             ....            
Contents of section .gnu.version_r:
 80485b0 01000200 10000000 10000000 00000000  ................
 80485c0 1169690d 00000300 3b010000 10000000  .ii.....;.......
 80485d0 1069690d 00000200 45010000 00000000  .ii.....E.......
Contents of section .rel.got:
 80485e0 94b50408 06200000                    ..... ..        
Contents of section .rel.bss:
 80485e8 40b60408 050c0000 44b60408 05170000  @.......D.......
 80485f8 48b60408 05190000                    H.......        
Contents of section .rel.plt:
 8048600 24b50408 07010000 28b50408 07020000  $.......(.......
 8048610 2cb50408 07030000 30b50408 07040000  ,.......0.......
 8048620 34b50408 07050000 38b50408 07060000  4.......8.......
 8048630 3cb50408 07070000 40b50408 07080000  <.......@.......
 8048640 44b50408 07090000 48b50408 070a0000  D.......H.......
 8048650 4cb50408 070b0000 50b50408 070d0000  L.......P.......
 8048660 54b50408 070e0000 58b50408 070f0000  T.......X.......
 8048670 5cb50408 07100000 60b50408 07110000  \.......`.......
 8048680 64b50408 07120000 68b50408 07130000  d.......h.......
 8048690 6cb50408 07140000 70b50408 07150000  l.......p.......
 80486a0 74b50408 07160000 78b50408 07180000  t.......x.......
 80486b0 7cb50408 071a0000 80b50408 071b0000  |...............
 80486c0 84b50408 071d0000 88b50408 071e0000  ................
 80486d0 8cb50408 071f0000 90b50408 07210000  .............!..
Contents of section .init:
 80486e0 5589e553 e8000000 005b81c3 2f2e0000  U..S.....[../...
 80486f0 83bb7c00 00000074 05e80279 fbf789f6  ..|....t...y....
 8048700 e86b0200 00e8a60e 00008b5d fcc9c3    .k.........]... 
Contents of section .plt:
 8048710 ff351cb5 0408ff25 20b50408 00000000  .5.....% .......
 8048720 ff2524b5 04086800 000000e9 e0ffffff  .%$...h.........
 8048730 ff2528b5 04086808 000000e9 d0ffffff  .%(...h.........
 8048740 ff252cb5 04086810 000000e9 c0ffffff  .%,...h.........
 8048750 ff2530b5 04086818 000000e9 b0ffffff  .%0...h.........
 8048760 ff2534b5 04086820 000000e9 a0ffffff  .%4...h ........
 8048770 ff2538b5 04086828 000000e9 90ffffff  .%8...h(........
 8048780 ff253cb5 04086830 000000e9 80ffffff  .%<...h0........
 8048790 ff2540b5 04086838 000000e9 70ffffff  .%@...h8....p...
 80487a0 ff2544b5 04086840 000000e9 60ffffff  .%D...h@....`...
 80487b0 ff2548b5 04086848 000000e9 50ffffff  .%H...hH....P...
 80487c0 ff254cb5 04086850 000000e9 40ffffff  .%L...hP....@...
 80487d0 ff2550b5 04086858 000000e9 30ffffff  .%P...hX....0...
 80487e0 ff2554b5 04086860 000000e9 20ffffff  .%T...h`.... ...
 80487f0 ff2558b5 04086868 000000e9 10ffffff  .%X...hh........
 8048800 ff255cb5 04086870 000000e9 00ffffff  .%\...hp........
 8048810 ff2560b5 04086878 000000e9 f0feffff  .%`...hx........
 8048820 ff2564b5 04086880 000000e9 e0feffff  .%d...h.........
 8048830 ff2568b5 04086888 000000e9 d0feffff  .%h...h.........
 8048840 ff256cb5 04086890 000000e9 c0feffff  .%l...h.........
 8048850 ff2570b5 04086898 000000e9 b0feffff  .%p...h.........
 8048860 ff2574b5 040868a0 000000e9 a0feffff  .%t...h.........
 8048870 ff2578b5 040868a8 000000e9 90feffff  .%x...h.........
 8048880 ff257cb5 040868b0 000000e9 80feffff  .%|...h.........
 8048890 ff2580b5 040868b8 000000e9 70feffff  .%....h.....p...
 80488a0 ff2584b5 040868c0 000000e9 60feffff  .%....h.....`...
 80488b0 ff2588b5 040868c8 000000e9 50feffff  .%....h.....P...
 80488c0 ff258cb5 040868d0 000000e9 40feffff  .%....h.....@...
 80488d0 ff2590b5 040868d8 000000e9 30feffff  .%....h.....0...
Contents of section .text:
 80488e0 31ed5e89 e183e4f8 50545268 e4950408  1.^.....PTRh....
 80488f0 68e08604 08515668 b0890408 e8fffeff  h....QVh........
 8048900 fff49090 90909090 90909090 90909090  ................
 8048910 5589e583 ec08833d e8ad0408 00753eeb  U......=.....u>.
 8048920 12a1e4ad 04088d50 048915e4 ad04088b  .......P........
 8048930 00ffd0a1 e4ad0408 83380075 e4b8c087  .........8.u....
 8048940 040885c0 740d83c4 f46884b4 0408e86d  ....t....h.....m
 8048950 feffffc7 05e8ad04 08010000 0089ec5d  ...............]
 8048960 c38d7600 5589e583 ec0889ec 5dc389f6  ..v.U.......]...
 8048970 5589e583 ec08b820 87040885 c0741283  U...... .....t..
 8048980 c4f8684c b6040868 84b40408 e88ffdff  ..hL...h........
 8048990 ff89ec5d c38d7600 5589e583 ec0889ec  ...]..v.U.......
 80489a0 5dc39090 90909090 90909090 90909090  ]...............
 80489b0 5589e583 ec14538b 45088b5d 0c83f801  U.....S.E..]....
 80489c0 750ea148 b60408a3 64b60408 eb6289f6  u..H....d....b..
 80489d0 83f80275 3b83c4f8 68209604 088b4304  ...u;...h ....C.
 80489e0 50e89afe ffffa364 b6040883 c41085c0  P......d........
 80489f0 753e83c4 fc8b4304 508b0350 68229604  u>....C.P..Ph"..
 8048a00 08e80afe ffff83c4 f46a08e8 40feffff  .........j..@...
 8048a10 83c4f88b 0350683f 960408e8 f0fdffff  .....Ph?........
 8048a20 83c4f46a 08e826fe ffff8db6 00000000  ...j..&.........
 8048a30 e82b0700 0083c4f4 68609604 08e8cefd  .+......h`......
 8048a40 ffff83c4 f468a096 0408e8c1 fdffff83  .....h..........
 8048a50 c420e8a5 07000083 c4f450e8 c0000000  . ........P.....
 8048a60 e8c70a00 0083c4f4 68e09604 08e89efd  ........h.......
 8048a70 ffff83c4 20e88207 000083c4 f450e8c5  .... ........P..
 8048a80 000000e8 a40a0000 83c4f468 20970408  ...........h ...
 8048a90 e87bfdff ff83c420 e85f0700 0083c4f4  .{..... ._......
 8048aa0 50e8f200 0000e881 0a000083 c4f4683f  P.............h?
 8048ab0 970408e8 58fdffff 83c420e8 3c070000  ....X..... .<...
 8048ac0 83c4f450 e8170200 00e85e0a 000083c4  ...P......^.....
 8048ad0 f4686097 0408e835 fdffff83 c420e819  .h`....5..... ..
 8048ae0 07000083 c4f450e8 40020000 e83b0a00  ......P.@....;..
 8048af0 0083c4f4 68a09704 08e812fd ffff83c4  ....h...........
 8048b00 20e8f606 000083c4 f450e889 020000e8   ........P......
 8048b10 180a0000 31c08b5d e889ec5d c3909090  ....1..]...]....
 8048b20 5589e583 ec088b45 0883c4f8 68c09704  U......E....h...
 8048b30 0850e8f9 04000083 c41085c0 7405e8b9  .P..........t...
 8048b40 09000089 ec5dc390 5589e583 ec205653  .....]..U.... VS
 8048b50 8b550883 c4f88d45 e85052e8 78040000  .U.....E.PR.x...
 8048b60 83c41083 7de80174 05e88e09 0000bb01  ....}..t........
 8048b70 0000008d 75e88d43 010faf44 9efc3904  ....u..C...D..9.
 8048b80 9e7405e8 74090000 4383fb05 7ee88d65  .t..t...C...~..e
 8048b90 d85b5e89 ec5dc390 5589e583 ec14538b  .[^..]..U.....S.
 8048ba0 550883c4 f48d45fc 508d45fb 508d45f4  U.....E.P.E.P.E.
 8048bb0 5068de97 040852e8 a4fcffff 83c42083  Ph....R....... .
 8048bc0 f8027f05 e8330900 00837df4 070f87b5  .....3....}.....
 8048bd0 0000008b 45f4ff24 85e89704 088d7600  ....E..$......v.
 8048be0 b371817d fc090300 000f84a0 000000e8  .q.}............
 8048bf0 08090000 e9960000 008db426 00000000  ...........&....
 8048c00 b362817d fcd60000 000f8480 000000e8  .b.}............
 8048c10 e8080000 eb79b362 817dfcf3 02000074  .....y.b.}.....t
 8048c20 6ee8d608 0000eb67 b36b817d fcfb0000  n......g.k.}....
 8048c30 00745ce8 c4080000 eb558db6 00000000  .t\......U......
 8048c40 b36f817d fca00000 007444e8 ac080000  .o.}.....tD.....
 8048c50 eb3db374 817dfcca 01000074 32e89a08  .=.t.}.....t2...
 8048c60 0000eb2b b376817d fc0c0300 007420e8  ...+.v.}.....t .
 8048c70 88080000 eb19b362 817dfc0c 02000074  .......b.}.....t
 8048c80 0ee87608 0000eb07 b378e86d 0800003a  ..v......x.m...:
 8048c90 5dfb7405 e8630800 008b5de8 89ec5dc3  ].t..c....]...].
 8048ca0 5589e583 ec105653 8b5d0883 fb017e20  U.....VS.]....~ 
 8048cb0 83c4f48d 43ff50e8 e4ffffff 89c683c4  ....C.P.........
 8048cc0 f48d43fe 50e8d6ff ffff01f0 eb0789f6  ..C.P...........
 8048cd0 b8010000 008d65e8 5b5e89ec 5dc389f6  ......e.[^..]...
 8048ce0 5589e583 ec188b55 0883c4fc 8d45fc50  U......U.....E.P
 8048cf0 68089804 0852e865 fbffff83 c41083f8  h....R.e........
 8048d00 01750683 7dfc007f 05e8ee07 000083c4  .u..}...........
 8048d10 f48b45fc 50e886ff ffff83c4 1083f837  ..E.P..........7
 8048d20 7405e8d5 07000089 ec5dc390 5589e583  t........]..U...
 8048d30 ec105653 8b5d0883 c4f453e8 d8020000  ..VS.]....S.....
 8048d40 83c41083 f8067405 e8af0700 0031d28d  ......t......1..
 8048d50 4df8be20 b204088a 041a240f 0fbec08a  M.. ......$.....
 8048d60 04308804 0a4283fa 057eecc6 45fe0083  .0...B...~..E...
 8048d70 c4f8680b 9804088d 45f850e8 b0020000  ..h.....E.P.....
 8048d80 83c41085 c07405e8 70070000 8d65e85b  .....t..p....e.[
 8048d90 5e89ec5d c38d7600 5589e583 ec4c5756  ^..]..v.U....LWV
 8048da0 538b5508 c745cc6c b2040883 c4f88d45  S.U..E.l.......E
 8048db0 e85052e8 20020000 31ff83c4 108d7600  .PR. ...1.....v.
 8048dc0 8d45e88b 04b84883 f8057605 e82b0700  .E....H...v..+..
 8048dd0 008d5f01 83fb057f 238d04bd 00000000  .._.....#.......
 8048de0 8945c88d 75e88b55 c88b0432 3b049e75  .E..u..U...2;..u
 8048df0 05e80607 00004383 fb057eea 4783ff05  ......C...~.G...
 8048e00 7ebe31ff 8d4de88d 45d08945 c48d7600  ~.1..M..E..E..v.
 8048e10 8b75ccbb 01000000 8d04bd00 00000089  .u..............
 8048e20 c23b1c08 7d128b04 0a8db426 00000000  .;..}......&....
 8048e30 8b760843 39c37cf8 8b55c489 34ba4783  .v.C9.|..U..4.G.
 8048e40 ff057ecc 8b75d089 75ccbf01 0000008d  ..~..u..u.......
 8048e50 55d08b04 ba894608 89c64783 ff057ef2  U.....F...G...~.
 8048e60 c7460800 0000008b 75cc31ff 8d742600  .F......u.1..t&.
 8048e70 8b56088b 063b027d 05e87e06 00008b76  .V...;.}..~....v
 8048e80 084783ff 047ee98d 65a85b5e 5f89ec5d  .G...~..e.[^_..]
 8048e90 c38d7600 5589e583 ec088b55 088b450c  ..v.U......U..E.
 8048ea0 85d2750c b8ffffff ffeb3790 8d742600  ..u.......7..t&.
 8048eb0 3b027d11 83c4f850 8b420450 e8d3ffff  ;.}....P.B.P....
 8048ec0 ff01c0eb 1d3b0274 1783c4f8 508b4208  .....;.t....P.B.
 8048ed0 50e8beff ffff01c0 40eb0790 8d742600  P.......@....t&.
 8048ee0 31c089ec 5dc389f6 5589e583 ec1453e8  1...]...U.....S.
 8048ef0 08030000 6a006a0a 6a0050e8 f0f8ffff  ....j.j.j.P.....
 8048f00 83c41089 c38d43ff 3de80300 007605e8  ......C.=....v..
 8048f10 e8050000 83c4f853 6820b304 08e872ff  .......Sh ....r.
 8048f20 ffff83c4 1083f807 7405e8cd 05000083  ........t.......
 8048f30 c4f46820 980408e8 d4f8ffff e8eb0500  ..h ............
 8048f40 008b5de8 89ec5dc3 90909090 90909090  ..]...].........
 8048f50 5589e583 ec0883c4 f468c09a 0408e8ad  U........h......
 8048f60 f8ffff83 c4f46a03 e873f8ff ff83c420  ......j..s..... 
 8048f70 83c4f468 f99a0408 e893f8ff ff83c4f4  ...h............
 8048f80 a140b604 0850e8f5 f7ffff83 c42083c4  .@...P....... ..
 8048f90 f46a01e8 48f8ffff 83c4f468 019b0408  .j..H......h....
 8048fa0 e86bf8ff ff83c420 83c4f46a 10e89ef8  .k..... ...j....
 8048fb0 ffff89f6 5589e583 ec088b45 0883c4f8  ....U......E....
 8048fc0 50680a9b 0408e845 f8ffff83 c4f46a08  Ph.....E......j.
 8048fd0 e87bf8ff ff8d7600 5589e583 ec088b4d  .{....v.U......M
 8048fe0 088b550c 8d421450 8d421050 8d420c50  ..U..B.P.B.P.B.P
 8048ff0 8d420850 8d420450 52681b9b 040851e8  .B.P.B.PRh....Q.
 8049000 5cf8ffff 83c42083 f8057f05 e8eb0400  \..... .........
 8049010 0089ec5d c38d7600 5589e58b 550831c0  ...]..v.U...U.1.
 8049020 803a0074 07424080 3a0075f9 89ec5dc3  .:.t.B@.:.u...].
 8049030 5589e583 ec0c5756 538b7508 8b7d0c83  U.....WVS.u..}..
 8049040 c4f456e8 d0ffffff 89c383c4 f457e8c5  ..V..........W..
 8049050 ffffff39 c37409b8 01000000 eb2189f6  ...9.t.......!..
 8049060 89f289f9 803a0074 148db426 00000000  .....:.t...&....
 8049070 8a023a01 75e14241 803a0075 f331c08d  ..:.u.BA.:.u.1..
 8049080 65e85b5e 5f89ec5d c38d7600 5589e583  e.[^_..]..v.U...
 8049090 ec205653 83c4fc6a 006a016a 02e80ef8  . VS...j.j.j....
 80490a0 ffff89c6 83c41085 f67d1783 c4f4682d  .........}....h-
 80490b0 9b0408e8 58f7ffff 83c4f46a 08e88ef7  ....X......j....
 80490c0 ffff83c4 f48b4508 50e862f7 ffff89c3  ......E.P.b.....
 80490d0 83c41085 db751983 c4f4683c 9b0408e8  .....u....h<....
 80490e0 2cf7ffff 83c4f46a 08e862f7 ffff89f6  ,......j..b.....
 80490f0 83c4f86a 108d45f0 50e842f7 ffff66c7  ...j..E.P.B...f.
 8049100 45f00200 83c4fc8b 430c508d 45f4508b  E.......C.P.E.P.
 8049110 43108b00 50e876f6 ffff83c4 208b450c  C...P.v..... .E.
 8049120 66c1c808 668945f2 83c4fc6a 108d45f0  f...f.E....j..E.
 8049130 5056e839 f7ffff83 c41085c0 7d1783c4  PV.9........}...
 8049140 f4684b9b 0408e8c5 f6ffff83 c4f46a08  .hK...........j.
 8049150 e8fbf6ff ff89f08d 65d85b5e 89ec5dc3  ........e.[^..].
 8049160 5589e583 ec0883c4 f868508f 04086a02  U........hP...j.
 8049170 e8fbf5ff ff89ec5d c38d7600 5589e58b  .......]..v.U...
 8049180 5508803a 00741e8b 0d44b604 088d7600  U..:.t...D....v.
 8049190 0fbe0242 f6444101 20750531 c0eb0b90  ...B.DA. u.1....
 80491a0 803a0075 ebb80100 000089ec 5dc389f6  .:.u........]...
 80491b0 5589e583 ec145383 c4fca164 b6040850  U.....S....d...P
 80491c0 6a50a180 b404088d 0480c1e0 040580b6  jP..............
 80491d0 040850e8 f8f5ffff 89c383c4 1085db74  ..P............t
 80491e0 1083c4f4 53e892ff ffff83c4 1085c075  ....S..........u
 80491f0 c689d88b 5de889ec 5dc389f6 5589e583  ....]...]...U...
 8049200 ec1457e8 a8ffffff 85c07553 a164b604  ..W.......uS.d..
 8049210 083b0548 b6040874 3183c4f4 687f9b04  .;.H...t1...h...
 8049220 08e83af5 ffff83c4 1085c074 0a83c4f4  ..:........t....
 8049230 6a00e819 f6ffffa1 48b60408 a364b604  j.......H....d..
 8049240 08e86aff ffff85c0 751583c4 f468609b  ..j.....u....h`.
 8049250 0408e8b9 f5ffffe8 a0020000 83c410a1  ................
 8049260 80b40408 8d0480c1 e0048db8 80b60408  ................
 8049270 b000fcb9 ffffffff f2ae89c8 f7d08d78  ...............x
 8049280 ff83ff4f 751283c4 f4688a9b 0408e87d  ...Ou....h.....}
 8049290 f5ffffe8 64020000 a180b404 088d0480  ....d...........
 80492a0 c1e004c6 84077fb6 04080005 80b60408  ................
 80492b0 ff0580b4 04088b7d e889ec5d c38d7600  .......}...]..v.
 80492c0 5589e583 ec5c5756 5383c4f4 6a00e8bd  U....\WVS...j...
 80492d0 f5ffff89 c783c410 83ffff75 1783c4f4  ...........u....
 80492e0 68a69b04 08e826f5 ffff83c4 f46a08e8  h.....&......j..
 80492f0 5cf5ffff 83c4f46a 00e832f4 ffff83c4  \......j..2.....
 8049300 1083f8ff 751a83c4 f468bb9b 0408e8fd  ....u....h......
 8049310 f4ffff83 c4f46a08 e833f5ff ff8d7600  ......j..3....v.
 8049320 e82bf4ff ff89c685 f6751783 c4f468cf  .+.......u....h.
 8049330 9b0408e8 d8f4ffff 83c4f46a 08e80ef5  ...........j....
 8049340 ffff83c4 f868e59b 040856e8 f0f3ffff  .....h....V.....
 8049350 83c4f868 019c0408 56e8e2f3 ffff83c4  ...h....V.......
 8049360 2083c4f4 6a00e855 f5ffff83 c41085c0   ...j..U........
 8049370 751e8d45 b0c7006e 6f626f83 c00466c7  u..E...nobo...f.
 8049380 006479c6 400200eb 178db426 00000000  .dy.@......&....
 8049390 83c4f850 8d45b050 e833f5ff ff83c410  ...P.E.P.3......
 80493a0 83c4fca1 80b40408 50b8129c 0408837d  ........P......}
 80493b0 08007405 b80a9c04 08508d45 b050a100  ..t......P.E.P..
 80493c0 ae040850 6820ae04 08681b9c 040856e8  ...Ph ...h....V.
 80493d0 6cf3ffff 31d283c4 203b1580 b404087d  l...1... ;.....}
 80493e0 3a83c4fc 8d0492c1 e0040580 b6040850  :..............P
 80493f0 8d5a0153 8d45b050 a100ae04 08506820  .Z.S.E.P.....Ph 
 8049400 ae040868 379c0408 56e832f3 ffff83c4  ...h7...V.2.....
 8049410 2089da3b 1580b404 087cc683 c4f456e8   ..;.....|....V.
 8049420 7cf3ffff 83c4f468 819a0408 68539c04  |......h....hS..
 8049430 0868589c 0408686f 9c040868 c0bc0408  .hX...ho...h....
 8049440 e85bf4ff ff83c430 83c4f468 c0bc0408  .[.....0...h....
 8049450 e85bf3ff ff83c410 85c07417 83c4f468  .[........t....h
 8049460 789c0408 e8a7f3ff ff83c4f4 6a08e8dd  x...........j...
 8049470 f3ffff83 c4f456e8 a4f3ffff 83c41085  ......V.........
 8049480 c0741d83 c4f46893 9c0408e8 80f3ffff  .t....h.........
 8049490 83c4f46a 08e8b6f3 ffff8db6 00000000  ...j............
 80494a0 83c4f457 e8e7f3ff ff83c410 85c07417  ...W..........t.
 80494b0 83c4f468 ad9c0408 e853f3ff ff83c4f4  ...h.....S......
 80494c0 6a08e889 f3ffff83 c4f457e8 60f2ffff  j.........W.`...
 80494d0 83c41085 c0741983 c4f468c9 9c0408e8  .....t....h.....
 80494e0 2cf3ffff 83c4f46a 08e862f3 ffff89f6  ,......j..b.....
 80494f0 8d65985b 5e5f89ec 5dc389f6 5589e583  .e.[^_..]...U...
 8049500 ec0883c4 f468e19c 0408e801 f3ffff83  .....h..........
 8049510 c4f468eb 9c0408e8 f4f2ffff 83c42083  ..h........... .
 8049520 c4f46a08 e827f3ff ff8d7600 5589e583  ..j..'....v.U...
 8049530 ec645383 3d80b404 08067563 8d5db053  .dS.=.....uc.].S
 8049540 8d45ac50 68039d04 086870b7 0408e80d  .E.Ph....hp.....
 8049550 f3ffff83 c41083f8 02753783 c4f86809  .........u7...h.
 8049560 9d040853 e8c7faff ff83c410 85c07522  ...S..........u"
 8049570 83c4f468 209d0408 e893f2ff ff83c4f4  ...h ...........
 8049580 68609d04 08e886f2 ffff83c4 20e856f9  h`.......... .V.
 8049590 ffff83c4 f468a09d 0408e871 f2ffff8b  .....h.....q....
 80495a0 5d9889ec 5dc39090 90909090 90909090  ]...]...........
 80495b0 5589e583 ec1453bb 08b50408 833d08b5  U.....S......=..
 80495c0 0408ff74 0c8b03ff d083c3fc 833bff75  ...t.........;.u
 80495d0 f45b89ec 5dc389f6 5589e583 ec0889ec  .[..]...U.......
 80495e0 5dc39090                             ]...            
Contents of section .fini:
 80495e4 5589e553 e8000000 005b81c3 2b1f0000  U..S.....[..+...
 80495f4 e817f3ff ff8b5dfc c9c3               ......]...      
Contents of section .rodata:
 8049600 03000000 01000200 00000000 00000000  ................
 8049610 00000000 00000000 00000000 00000000  ................
 8049620 72002573 3a204572 726f723a 20436f75  r.%s: Error: Cou
 8049630 6c646e27 74206f70 656e2025 730a0055  ldn't open %s..U
 8049640 73616765 3a202573 205b3c69 6e707574  sage: %s [<input
 8049650 5f66696c 653e5d0a 00000000 00000000  _file>].........
 8049660 57656c63 6f6d6520 746f206d 79206669  Welcome to my fi
 8049670 656e6469 7368206c 6974746c 6520626f  endish little bo
 8049680 6d622e20 596f7520 68617665 20362070  mb. You have 6 p
 8049690 68617365 73207769 74680a00 00000000  hases with......
 80496a0 77686963 6820746f 20626c6f 7720796f  which to blow yo
 80496b0 75727365 6c662075 702e2048 61766520  urself up. Have 
 80496c0 61206e69 63652064 6179210a 00000000  a nice day!.....
 80496d0 00000000 00000000 00000000 00000000  ................
 80496e0 50686173 65203120 64656675 7365642e  Phase 1 defused.
 80496f0 20486f77 2061626f 75742074 6865206e   How about the n
 8049700 65787420 6f6e653f 0a000000 00000000  ext one?........
 8049710 00000000 00000000 00000000 00000000  ................
 8049720 54686174 2773206e 756d6265 7220322e  That's number 2.
 8049730 20204b65 65702067 6f696e67 210a0048    Keep going!..H
 8049740 616c6677 61792074 68657265 210a0000  alfway there!...
 8049750 00000000 00000000 00000000 00000000  ................
 8049760 536f2079 6f752067 6f742074 68617420  So you got that 
 8049770 6f6e652e 20205472 79207468 6973206f  one.  Try this o
 8049780 6e652e0a 00000000 00000000 00000000  ne..............
 8049790 00000000 00000000 00000000 00000000  ................
 80497a0 476f6f64 20776f72 6b212020 4f6e2074  Good work!  On t
 80497b0 6f207468 65206e65 78742e2e 2e0a0000  o the next......
 80497c0 5075626c 69632073 7065616b 696e6720  Public speaking 
 80497d0 69732076 65727920 65617379 2e002564  is very easy..%d
 80497e0 20256320 25640000 e08b0408 008c0408   %c %d..........
 80497f0 168c0408 288c0408 408c0408 528c0408  ....(...@...R...
 8049800 648c0408 768c0408 25640067 69616e74  d...v...%d.giant
 8049810 73000000 00000000 00000000 00000000  s...............
 8049820 576f7721 20596f75 27766520 64656675  Wow! You've defu
 8049830 73656420 74686520 73656372 65742073  sed the secret s
 8049840 74616765 210a0000 00000000 00000000  tage!...........
 8049850 00000000 00000000 00000000 00000000  ................
 8049860 77686974 65666973 682e636d 636c2e63  whitefish.cmcl.c
 8049870 732e636d 752e6564 75007761 726d6f75  s.cmu.edu.warmou
 8049880 74682e63 6d636c2e 63732e63 6d752e65  th.cmcl.cs.cmu.e
 8049890 64750077 616c6c65 79652e63 6d636c2e  du.walleye.cmcl.
 80498a0 63732e63 6d752e65 64750073 74757267  cs.cmu.edu.sturg
 80498b0 656f6e2e 636d636c 2e63732e 636d752e  eon.cmcl.cs.cmu.
 80498c0 65647500 73747269 7065722e 636d636c  edu.striper.cmcl
 80498d0 2e63732e 636d752e 65647500 736f636b  .cs.cmu.edu.sock
 80498e0 6579652e 636d636c 2e63732e 636d752e  eye.cmcl.cs.cmu.
 80498f0 65647500 73686565 70736865 61642e63  edu.sheepshead.c
 8049900 6d636c2e 63732e63 6d752e65 64750073  mcl.cs.cmu.edu.s
 8049910 6861642e 636d636c 2e63732e 636d752e  had.cmcl.cs.cmu.
 8049920 65647500 73617567 65722e63 6d636c2e  edu.sauger.cmcl.
 8049930 63732e63 6d752e65 64750073 616c6d6f  cs.cmu.edu.salmo
 8049940 6e2e636d 636c2e63 732e636d 752e6564  n.cmcl.cs.cmu.ed
 8049950 75007075 6d706b69 6e736565 642e636d  u.pumpkinseed.cm
 8049960 636c2e63 732e636d 752e6564 75007069  cl.cs.cmu.edu.pi
 8049970 6b652e63 6d636c2e 63732e63 6d752e65  ke.cmcl.cs.cmu.e
 8049980 64750070 69636b65 72656c2e 636d636c  du.pickerel.cmcl
 8049990 2e63732e 636d752e 65647500 70657263  .cs.cmu.edu.perc
 80499a0 682e636d 636c2e63 732e636d 752e6564  h.cmcl.cs.cmu.ed
 80499b0 75007061 64646c65 66697368 2e636d63  u.paddlefish.cmc
 80499c0 6c2e6373 2e636d75 2e656475 006d7573  l.cs.cmu.edu.mus
 80499d0 6b69652e 636d636c 2e63732e 636d752e  kie.cmcl.cs.cmu.
 80499e0 65647500 6d696e6e 6f772e63 6d636c2e  edu.minnow.cmcl.
 80499f0 63732e63 6d752e65 64750069 6e636f6e  cs.cmu.edu.incon
 8049a00 6e752e63 6d636c2e 63732e63 6d752e65  nu.cmcl.cs.cmu.e
 8049a10 64750067 7261796c 696e672e 636d636c  du.grayling.cmcl
 8049a20 2e63732e 636d752e 65647500 676f6269  .cs.cmu.edu.gobi
 8049a30 2e636d63 6c2e6373 2e636d75 2e656475  .cmcl.cs.cmu.edu
 8049a40 00666c69 65722e63 6d636c2e 63732e63  .flier.cmcl.cs.c
 8049a50 6d752e65 64750063 68756d2e 636d636c  mu.edu.chum.cmcl
 8049a60 2e63732e 636d752e 65647500 63686172  .cs.cmu.edu.char
 8049a70 2e636d63 6c2e6373 2e636d75 2e656475  .cmcl.cs.cmu.edu
 8049a80 00626c75 6567696c 6c2e636d 636c2e63  .bluegill.cmcl.c
 8049a90 732e636d 752e6564 75006261 73732e63  s.cmu.edu.bass.c
 8049aa0 6d636c2e 63732e63 6d752e65 64750000  mcl.cs.cmu.edu..
 8049ab0 00000000 00000000 00000000 00000000  ................
 8049ac0 536f2079 6f752074 68696e6b 20796f75  So you think you
 8049ad0 2063616e 2073746f 70207468 6520626f   can stop the bo
 8049ae0 6d622077 69746820 6374726c 2d632c20  mb with ctrl-c, 
 8049af0 646f2079 6f753f0a 0057656c 6c2e2e2e  do you?..Well...
 8049b00 004f4b2e 203a2d29 0a00496e 76616c69  .OK. :-)..Invali
 8049b10 64207068 61736525 730a0025 64202564  d phase%s..%d %d
 8049b20 20256420 25642025 64202564 00426164   %d %d %d %d.Bad
 8049b30 20686f73 74202831 292e0a00 42616420   host (1)...Bad 
 8049b40 686f7374 20283229 2e0a0042 61642068  host (2)...Bad h
 8049b50 6f737420 2833292e 0a000000 00000000  ost (3).........
 8049b60 4572726f 723a2050 72656d61 74757265  Error: Premature
 8049b70 20454f46 206f6e20 73746469 6e0a0047   EOF on stdin..G
 8049b80 52414445 5f424f4d 42004572 726f723a  RADE_BOMB.Error:
 8049b90 20496e70 7574206c 696e6520 746f6f20   Input line too 
 8049ba0 6c6f6e67 0a004552 524f523a 20647570  long..ERROR: dup
 8049bb0 28302920 6572726f 720a0045 52524f52  (0) error..ERROR
 8049bc0 3a20636c 6f736520 6572726f 720a0045  : close error..E
 8049bd0 52524f52 3a20746d 7066696c 65206572  RROR: tmpfile er
 8049be0 726f720a 00537562 6a656374 3a20426f  ror..Subject: Bo
 8049bf0 6d62206e 6f746966 69636174 696f6e0a  mb notification.
 8049c00 000a006e 6f626f64 79006465 66757365  ...nobody.defuse
 8049c10 64006578 706c6f64 65640062 6f6d622d  d.exploded.bomb-
 8049c20 68656164 65723a25 733a2564 3a25733a  header:%s:%d:%s:
 8049c30 25733a25 640a0062 6f6d622d 73747269  %s:%d..bomb-stri
 8049c40 6e673a25 733a2564 3a25733a 25643a25  ng:%s:%d:%s:%d:%
 8049c50 730a0062 6f6d6200 2f757372 2f736269  s..bomb./usr/sbi
 8049c60 6e2f7365 6e646d61 696c202d 626d0025  n/sendmail -bm.%
 8049c70 73202573 40257300 4552524f 523a206e  s %s@%s.ERROR: n
 8049c80 6f746966 69636174 696f6e20 6572726f  otification erro
 8049c90 720a0045 52524f52 3a206663 6c6f7365  r..ERROR: fclose
 8049ca0 28746d70 29206572 726f720a 00455252  (tmp) error..ERR
 8049cb0 4f523a20 64757028 746d7073 7464696e  OR: dup(tmpstdin
 8049cc0 29206572 726f720a 00455252 4f523a20  ) error..ERROR: 
 8049cd0 636c6f73 6528746d 70737464 696e290a  close(tmpstdin).
 8049ce0 000a424f 4f4d2121 210a0054 68652062  ..BOOM!!!..The b
 8049cf0 6f6d6220 68617320 626c6f77 6e207570  omb has blown up
 8049d00 2e0a0025 64202573 00617573 74696e70  ...%d %s.austinp
 8049d10 6f776572 73000000 00000000 00000000  owers...........
 8049d20 43757273 65732c20 796f7527 76652066  Curses, you've f
 8049d30 6f756e64 20746865 20736563 72657420  ound the secret 
 8049d40 70686173 65210a00 00000000 00000000  phase!..........
 8049d50 00000000 00000000 00000000 00000000  ................
 8049d60 42757420 66696e64 696e6720 69742061  But finding it a
 8049d70 6e642073 6f6c7669 6e672069 74206172  nd solving it ar
 8049d80 65207175 69746520 64696666 6572656e  e quite differen
 8049d90 742e2e2e 0a000000 00000000 00000000  t...............
 8049da0 436f6e67 72617475 6c617469 6f6e7321  Congratulations!
 8049db0 20596f75 27766520 64656675 73656420   You've defused 
 8049dc0 74686520 626f6d62 210a00             the bomb!..     
Contents of section .data:
 804ade0 00000000 14b50408 00000000 00000000  ................
 804adf0 00000000 00000000 00000000 00000000  ................
 804ae00 00000000 00000000 00000000 00000000  ................
 804ae10 00000000 00000000 00000000 00000000  ................
 804ae20 67656e65 72696300 00000000 00000000  generic.........
 804ae30 00000000 00000000 00000000 00000000  ................
 804ae40 00000000 00000000 00000000 00000000  ................
 804ae50 00000000 00000000 00000000 00000000  ................
 804ae60 00000000 00000000 00000000 00000000  ................
 804ae70 00000000 00000000 00000000 00000000  ................
 804ae80 00000000 00000000 00000000 00000000  ................
 804ae90 00000000 00000000 00000000 00000000  ................
 804aea0 00000000 00000000 00000000 00000000  ................
 804aeb0 00000000 00000000 00000000 00000000  ................
 804aec0 00000000 00000000 00000000 00000000  ................
 804aed0 00000000 00000000 00000000 00000000  ................
 804aee0 00000000 00000000 00000000 00000000  ................
 804aef0 00000000 00000000 00000000 00000000  ................
 804af00 00000000 00000000 00000000 00000000  ................
 804af10 00000000 00000000 00000000 00000000  ................
 804af20 00000000 00000000 00000000 00000000  ................
 804af30 00000000 00000000 00000000 00000000  ................
 804af40 00000000 00000000 00000000 00000000  ................
 804af50 00000000 00000000 00000000 00000000  ................
 804af60 00000000 00000000 00000000 00000000  ................
 804af70 00000000 00000000 00000000 00000000  ................
 804af80 00000000 00000000 00000000 00000000  ................
 804af90 00000000 00000000 00000000 00000000  ................
 804afa0 00000000 00000000 00000000 00000000  ................
 804afb0 00000000 00000000 00000000 00000000  ................
 804afc0 00000000 00000000 00000000 00000000  ................
 804afd0 00000000 00000000 00000000 00000000  ................
 804afe0 00000000 00000000 00000000 00000000  ................
 804aff0 00000000 00000000 00000000 00000000  ................
 804b000 00000000 00000000 00000000 00000000  ................
 804b010 00000000 00000000 00000000 00000000  ................
 804b020 00000000 00000000 00000000 00000000  ................
 804b030 00000000 00000000 00000000 00000000  ................
 804b040 00000000 00000000 00000000 00000000  ................
 804b050 00000000 00000000 00000000 00000000  ................
 804b060 00000000 00000000 00000000 00000000  ................
 804b070 00000000 00000000 00000000 00000000  ................
 804b080 00000000 00000000 00000000 00000000  ................
 804b090 00000000 00000000 00000000 00000000  ................
 804b0a0 00000000 00000000 00000000 00000000  ................
 804b0b0 00000000 00000000 00000000 00000000  ................
 804b0c0 00000000 00000000 00000000 00000000  ................
 804b0d0 00000000 00000000 00000000 00000000  ................
 804b0e0 00000000 00000000 00000000 00000000  ................
 804b0f0 00000000 00000000 00000000 00000000  ................
 804b100 00000000 00000000 00000000 00000000  ................
 804b110 00000000 00000000 00000000 00000000  ................
 804b120 00000000 00000000 00000000 00000000  ................
 804b130 00000000 00000000 00000000 00000000  ................
 804b140 00000000 00000000 00000000 00000000  ................
 804b150 00000000 00000000 00000000 00000000  ................
 804b160 00000000 00000000 00000000 00000000  ................
 804b170 00000000 00000000 00000000 00000000  ................
 804b180 00000000 00000000 00000000 00000000  ................
 804b190 00000000 00000000 00000000 00000000  ................
 804b1a0 00000000 00000000 00000000 00000000  ................
 804b1b0 00000000 00000000 00000000 00000000  ................
 804b1c0 00000000 00000000 00000000 00000000  ................
 804b1d0 00000000 00000000 00000000 00000000  ................
 804b1e0 00000000 00000000 00000000 00000000  ................
 804b1f0 00000000 00000000 00000000 00000000  ................
 804b200 00000000 00000000 00000000 00000000  ................
 804b210 00000000 00000000 00000000 00000000  ................
 804b220 69737276 65617768 6f62706e 75746667  isrveawhobpnutfg
 804b230 b0010000 06000000 00000000 d4000000  ................
 804b240 05000000 30b20408 e5030000 04000000  ....0...........
 804b250 3cb20408 2d010000 03000000 48b20408  <...-.......H...
 804b260 d5020000 02000000 54b20408 fd000000  ........T.......
 804b270 01000000 60b20408 e9030000 00000000  ....`...........
 804b280 00000000 2f000000 00000000 00000000  ..../...........
 804b290 14000000 00000000 00000000 07000000  ................
 804b2a0 00000000 00000000 23000000 00000000  ........#.......
 804b2b0 00000000 63000000 00000000 00000000  ....c...........
 804b2c0 01000000 00000000 00000000 28000000  ............(...
 804b2d0 00000000 00000000 6b000000 b4b20408  ........k.......
 804b2e0 78b20408 06000000 c0b20408 9cb20408  x...............
 804b2f0 2d000000 ccb20408 84b20408 16000000  -...............
 804b300 90b20408 a8b20408 32000000 f0b20408  ........2.......
 804b310 d8b20408 08000000 e4b20408 fcb20408  ................
 804b320 24000000 14b30408 08b30408 00000000  $...............
 804b330 00000000 00000000 00000000 00000000  ................
 804b340 9a9a0408 819a0408 6c9a0408 579a0408  ........l...W...
 804b350 419a0408 2c9a0408 139a0408 fb990408  A...,...........
 804b360 e4990408 cd990408 b2990408 9c990408  ................
 804b370 83990408 6e990408 52990408 3b990408  ....n...R...;...
 804b380 24990408 0f990408 f4980408 dc980408  $...............
 804b390 c4980408 ab980408 93980408 7a980408  ............z...
 804b3a0 60980408 00000000 00000000 00000000  `...............
 804b3b0 00000000 00000000 00000000 00000000  ................
 804b3c0 00000000 00000000 00000000 00000000  ................
 804b3d0 00000000 00000000 00000000 00000000  ................
 804b3e0 00000000 00000000 00000000 00000000  ................
 804b3f0 00000000 00000000 00000000 00000000  ................
 804b400 00000000 00000000 00000000 00000000  ................
 804b410 00000000 00000000 00000000 00000000  ................
 804b420 00000000 00000000 00000000 00000000  ................
 804b430 00000000 00000000 00000000 00000000  ................
 804b440 00000000 00000000 00000000 00000000  ................
 804b450 00000000 00000000 00000000 00000000  ................
 804b460 00000000 00000000 00000000 00000000  ................
 804b470 00000000 00000000 00000000 00000000  ................
 804b480 00000000                             ....            
Contents of section .eh_frame:
 804b484 10000000 00000000 0100017c 080c0404  ...........|....
 804b494 88010000 68000000 18000000 b0890408  ....h...........
 804b4a4 6d010000 410e0885 02420d05 4483086a  m...A....B..D..j
 804b4b4 2e10024f 2e004d2e 10552e00 492e1045  ...O..M..U..I..E
 804b4c4 2e004d2e 10482e00 492e1045 2e004d2e  ..M..H..I..E..M.
 804b4d4 10482e00 492e1045 2e004d2e 10482e00  .H..I..E..M..H..
 804b4e4 492e1045 2e004d2e 10482e00 492e1045  I..E..M..H..I..E
 804b4f4 2e004d2e 10482e00 492e1045 2e000000  ..M..H..I..E....
 804b504 00000000                             ....            
Contents of section .ctors:
 804b508 ffffffff 00000000                    ........        
Contents of section .dtors:
 804b510 ffffffff 00000000                    ........        
Contents of section .got:
 804b518 98b50408 00000000 00000000 26870408  ............&...
 804b528 36870408 46870408 56870408 66870408  6...F...V...f...
 804b538 76870408 86870408 96870408 a6870408  v...............
 804b548 b6870408 c6870408 d6870408 e6870408  ................
 804b558 f6870408 06880408 16880408 26880408  ............&...
 804b568 36880408 46880408 56880408 66880408  6...F...V...f...
 804b578 76880408 86880408 96880408 a6880408  v...............
 804b588 b6880408 c6880408 d6880408 00000000  ................
Contents of section .dynamic:
 804b598 01000000 10000000 0c000000 e0860408  ................
 804b5a8 0d000000 e4950408 04000000 28810408  ............(...
 804b5b8 05000000 1c840408 06000000 fc810408  ................
 804b5c8 0a000000 3b010000 0b000000 10000000  ....;...........
 804b5d8 15000000 00000000 03000000 18b50408  ................
 804b5e8 02000000 e0000000 14000000 11000000  ................
 804b5f8 17000000 00860408 11000000 e0850408  ................
 804b608 12000000 20000000 13000000 08000000  .... ...........
 804b618 feffff6f b0850408 ffffff6f 01000000  ...o.......o....
 804b628 f0ffff6f 6c850408 00000000 00000000  ...ol...........
Contents of section .stab:
 0000 01000000 00009b00 4f130000 08000000  ........O.......
 0010 64000000 04890408 01000000 64000000  d...........d...
 0020 04890408 2b000000 3c000000 00000000  ....+...<.......
 0030 3a000000 80000000 00000000 69000000  :...........i...
 0040 80000000 00000000 83000000 80000000  ................
 0050 00000000 b7000000 80000000 00000000  ................
 0060 ef000000 80000000 00000000 2c010000  ............,...
 0070 80000000 00000000 78010000 80000000  ........x.......
 0080 00000000 c4010000 80000000 00000000  ................
 0090 ea010000 80000000 00000000 14020000  ................
 00a0 80000000 00000000 3a020000 80000000  ........:.......
 00b0 00000000 5f020000 80000000 00000000  ...._...........
 00c0 79020000 80000000 00000000 94020000  y...............
 00d0 80000000 00000000 b5020000 80000000  ................
 00e0 00000000 ee020000 80000000 00000000  ................
 00f0 11030000 80000000 00000000 35030000  ............5...
 0100 80000000 00000000 5f030000 80000000  ........_.......
 0110 00000000 73030000 82000000 00000000  ....s...........
 0120 8d030000 82000000 00000000 00000000  ................
 0130 a2000000 00000000 c5030000 82000000  ................
 0140 00000000 da030000 82000000 00000000  ................
 0150 ec030000 82000000 00000000 02040000  ................
 0160 82000000 00000000 19040000 82000000  ................
 0170 00000000 00000000 a2000000 00000000  ................
 0180 00000000 a2000000 00000000 00000000  ................
 0190 a2000000 00000000 2d040000 82000000  ........-.......
 01a0 00000000 00000000 a2000000 00000000  ................
 01b0 6e040000 82000000 00000000 82040000  n...............
 01c0 82000000 1d960000 2d040000 c2000000  ........-.......
 01d0 00000000 95040000 80000000 00000000  ................
 01e0 e4040000 80000000 00000000 19050000  ................
 01f0 80000000 00000000 59050000 80000000  ........Y.......
 0200 00000000 96050000 80000000 00000000  ................
 0210 d0050000 80000000 00000000 06060000  ................
 0220 80000000 00000000 3d060000 80000000  ........=.......
 0230 00000000 74060000 80000000 00000000  ....t...........
 0240 a6060000 82000000 00000000 bb060000  ................
 0250 82000000 283b0000 cf060000 80000000  ....(;..........
 0260 00000000 2d070000 80000000 00000000  ....-...........
 0270 73070000 80000000 00000000 93070000  s...............
 0280 80002400 00000000 00000000 a2000000  ..$.............
 0290 00000000 00000000 a2000000 00000000  ................
 02a0 00000000 a2000000 00000000 00000000  ................
 02b0 a2000000 00000000 00000000 a2000000  ................
 02c0 00000000 00000000 a2000000 00000000  ................
 02d0 00000000 a2000000 00000000 b5070000  ................
 02e0 82000000 42180000 dc070000 82000000  ....B...........
 02f0 da3f0100 2d040000 82000000 d8040000  .?..-...........
 0300 04080000 8000aa00 00000000 00000000  ................
 0310 a2000000 00000000 19080000 80002000  .............. .
 0320 00000000 31080000 80002100 00000000  ....1.....!.....
 0330 49080000 80002200 00000000 5f080000  I....."....._...
 0340 80002300 00000000 76080000 80002500  ..#.....v.....%.
 0350 00000000 8f080000 80002600 00000000  ..........&.....
 0360 a6080000 80003100 00000000 be080000  ......1.........
 0370 80003200 00000000 d7080000 80003300  ..2...........3.
 0380 00000000 ef080000 80003400 00000000  ..........4.....
 0390 09090000 80003500 00000000 22090000  ......5....."...
 03a0 80003600 00000000 3c090000 80003800  ..6.....<.....8.
 03b0 00000000 55090000 80003900 00000000  ....U.....9.....
 03c0 6f090000 80003b00 00000000 92090000  o.....;.........
 03d0 80003d00 00000000 aa090000 80003e00  ..=...........>.
 03e0 00000000 c2090000 80003f00 00000000  ..........?.....
 03f0 da090000 80004000 00000000 f2090000  ......@.........
 0400 80004100 00000000 0b0a0000 80004200  ..A...........B.
 0410 00000000 250a0000 80004300 00000000  ....%.....C.....
 0420 3c0a0000 80004400 00000000 550a0000  <.....D.....U...
 0430 80004500 00000000 6c0a0000 80004600  ..E.....l.....F.
 0440 00000000 850a0000 80004700 00000000  ..........G.....
 0450 9d0a0000 80004800 00000000 b80a0000  ......H.........
 0460 80004900 00000000 cf0a0000 80004e00  ..I...........N.
 0470 00000000 120b0000 80005100 00000000  ..........Q.....
 0480 2b0b0000 80005200 00000000 450b0000  +.....R.....E...
 0490 80005300 00000000 5d0b0000 80005400  ..S.....].....T.
 04a0 00000000 760b0000 80005600 00000000  ....v.....V.....
 04b0 8f0b0000 80005900 00000000 a80b0000  ......Y.........
 04c0 80006f00 00000000 f50b0000 80007200  ..o...........r.
 04d0 00000000 0c0c0000 80007500 00000000  ..........u.....
 04e0 270c0000 80007b00 00000000 410c0000  '.....{.....A...
 04f0 80007c00 00000000 5e0c0000 80007f00  ..|.....^.......
 0500 00000000 7b0c0000 80008000 00000000  ....{...........
 0510 9a0c0000 80008300 00000000 b70c0000  ................
 0520 80008400 00000000 d60c0000 80008700  ................
 0530 00000000 f00c0000 80008a00 00000000  ................
 0540 0b0d0000 80008d00 00000000 270d0000  ............'...
 0550 80008e00 00000000 440d0000 80009100  ........D.......
 0560 00000000 5e0d0000 82000000 554f0100  ....^.......UO..
 0570 920d0000 82000000 880f0000 ba0d0000  ................
 0580 80000000 00000000 00000000 a2000000  ................
 0590 00000000 ee0d0000 80000000 00000000  ................
 05a0 370e0000 80002200 00000000 760e0000  7.....".....v...
 05b0 80000000 00000000 b20e0000 80000000  ................
 05c0 00000000 e80e0000 80000000 00000000  ................
 05d0 1a0f0000 80000000 00000000 530f0000  ............S...
 05e0 80003300 00000000 910f0000 80000000  ..3.............
 05f0 00000000 c90f0000 80003b00 00000000  ..........;.....
 0600 e40f0000 80004200 00000000 1f100000  ......B.........
 0610 80004500 00000000 3c100000 80000000  ..E.....<.......
 0620 00000000 7a100000 80000000 00000000  ....z...........
 0630 a9100000 80005200 00000000 d7100000  ......R.........
 0640 80005900 00000000 17110000 80005d00  ..Y...........].
 0650 00000000 35110000 80000000 00000000  ....5...........
 0660 84110000 80000000 00000000 bf110000  ................
 0670 80000000 00000000 f9110000 80000000  ................
 0680 00000000 15120000 80006b00 00000000  ..........k.....
 0690 37120000 80000000 00000000 77120000  7...........w...
 06a0 80007300 00000000 8f120000 80007800  ..s...........x.
 06b0 00000000 00000000 a2000000 00000000  ................
 06c0 00000000 a2000000 00000000 2d040000  ............-...
 06d0 82000000 110a0000 a8120000 8000ff00  ................
 06e0 00000000 be120000 80001801 00000000  ................
 06f0 00000000 a2000000 00000000 d3120000  ................
 0700 80002300 00000000 ec120000 80002400  ..#...........$.
 0710 00000000 05130000 80002500 00000000  ..........%.....
 0720 1f130000 80002600 00000000 00000000  ......&.........
 0730 a2000000 00000000 39130000 20002200  ........9... .".
 0740 00000000 00000000 64000000 04890408  ........d.......
Contents of section .stabstr:
 0000 00696e69 742e6300 2f757372 2f737263  .init.c./usr/src
 0010 2f62732f 4255494c 442f676c 6962632d  /bs/BUILD/glibc-
 0020 322e312e 332f6373 752f0067 6363325f  2.1.3/csu/.gcc2_
 0030 636f6d70 696c6564 2e00696e 743a7428  compiled..int:t(
 0040 302c3129 3d722830 2c31293b 30303230  0,1)=r(0,1);0020
 0050 30303030 30303030 303b3030 31373737  000000000;001777
 0060 37373737 3737373b 00636861 723a7428  7777777;.char:t(
 0070 302c3229 3d722830 2c32293b 303b3132  0,2)=r(0,2);0;12
 0080 373b006c 6f6e6720 696e743a 7428302c  7;.long int:t(0,
 0090 33293d72 28302c31 293b3030 32303030  3)=r(0,1);002000
 00a0 30303030 3030303b 30303137 37373737  0000000;00177777
 00b0 37373737 373b0075 6e736967 6e656420  77777;.unsigned 
 00c0 696e743a 7428302c 34293d72 28302c31  int:t(0,4)=r(0,1
 00d0 293b3030 30303030 30303030 3030303b  );0000000000000;
 00e0 30303337 37373737 37373737 373b006c  0037777777777;.l
 00f0 6f6e6720 756e7369 676e6564 20696e74  ong unsigned int
 0100 3a742830 2c35293d 7228302c 31293b30  :t(0,5)=r(0,1);0
 0110 30303030 30303030 30303030 3b303033  000000000000;003
 0120 37373737 37373737 37373b00 6c6f6e67  7777777777;.long
 0130 206c6f6e 6720696e 743a7428 302c3629   long int:t(0,6)
 0140 3d722830 2c31293b 30313030 30303030  =r(0,1);01000000
 0150 30303030 30303030 30303030 3030303b  000000000000000;
 0160 30373737 37373737 37373737 37373737  0777777777777777
 0170 37373737 37373b00 6c6f6e67 206c6f6e  777777;.long lon
 0180 6720756e 7369676e 65642069 6e743a74  g unsigned int:t
 0190 28302c37 293d7228 302c3129 3b303030  (0,7)=r(0,1);000
 01a0 30303030 30303030 30303b30 31373737  0000000000;01777
 01b0 37373737 37373737 37373737 37373737  7777777777777777
 01c0 37373b00 73686f72 7420696e 743a7428  77;.short int:t(
 01d0 302c3829 3d722830 2c38293b 2d333237  0,8)=r(0,8);-327
 01e0 36383b33 32373637 3b007368 6f727420  68;32767;.short 
 01f0 756e7369 676e6564 20696e74 3a742830  unsigned int:t(0
 0200 2c39293d 7228302c 39293b30 3b363535  ,9)=r(0,9);0;655
 0210 33353b00 7369676e 65642063 6861723a  35;.signed char:
 0220 7428302c 3130293d 7228302c 3130293b  t(0,10)=r(0,10);
 0230 2d313238 3b313237 3b00756e 7369676e  -128;127;.unsign
 0240 65642063 6861723a 7428302c 3131293d  ed char:t(0,11)=
 0250 7228302c 3131293b 303b3235 353b0066  r(0,11);0;255;.f
 0260 6c6f6174 3a742830 2c313229 3d722830  loat:t(0,12)=r(0
 0270 2c31293b 343b303b 00646f75 626c653a  ,1);4;0;.double:
 0280 7428302c 3133293d 7228302c 31293b38  t(0,13)=r(0,1);8
 0290 3b303b00 6c6f6e67 20646f75 626c653a  ;0;.long double:
 02a0 7428302c 3134293d 7228302c 31293b31  t(0,14)=r(0,1);1
 02b0 323b303b 00636f6d 706c6578 20696e74  2;0;.complex int
 02c0 3a742830 2c313529 3d733872 65616c3a  :t(0,15)=s8real:
 02d0 28302c31 292c302c 33323b69 6d61673a  (0,1),0,32;imag:
 02e0 28302c31 292c3332 2c33323b 3b00636f  (0,1),32,32;;.co
 02f0 6d706c65 7820666c 6f61743a 7428302c  mplex float:t(0,
 0300 3136293d 7228302c 3136293b 343b303b  16)=r(0,16);4;0;
 0310 00636f6d 706c6578 20646f75 626c653a  .complex double:
 0320 7428302c 3137293d 7228302c 3137293b  t(0,17)=r(0,17);
 0330 383b303b 00636f6d 706c6578 206c6f6e  8;0;.complex lon
 0340 6720646f 75626c65 3a742830 2c313829  g double:t(0,18)
 0350 3d722830 2c313829 3b31323b 303b0076  =r(0,18);12;0;.v
 0360 6f69643a 7428302c 3139293d 28302c31  oid:t(0,19)=(0,1
 0370 3929002e 2e2f696e 636c7564 652f6c69  9).../include/li
 0380 62632d73 796d626f 6c732e68 002f7573  bc-symbols.h./us
 0390 722f7372 632f6273 2f425549 4c442f67  r/src/bs/BUILD/g
 03a0 6c696263 2d322e31 2e332f62 75696c64  libc-2.1.3/build
 03b0 2d693338 362d6c69 6e75782f 636f6e66  -i386-linux/conf
 03c0 69672e68 002e2e2f 696e636c 7564652f  ig.h.../include/
 03d0 6c696269 6e746c2e 68002e2e 2f696e74  libintl.h.../int
 03e0 6c2f6c69 62696e74 6c2e6800 2e2e2f69  l/libintl.h.../i
 03f0 6e636c75 64652f66 65617475 7265732e  nclude/features.
 0400 68002e2e 2f696e63 6c756465 2f737973  h.../include/sys
 0410 2f636465 66732e68 002e2e2f 6d697363  /cdefs.h.../misc
 0420 2f737973 2f636465 66732e68 002f7573  /sys/cdefs.h./us
 0430 722f6c69 622f6763 632d6c69 622f6933  r/lib/gcc-lib/i3
 0440 38362d72 65646861 742d6c69 6e75782f  86-redhat-linux/
 0450 65676373 2d322e39 312e3636 2f696e63  egcs-2.91.66/inc
 0460 6c756465 2f737464 6465662e 68002e2e  lude/stddef.h...
 0470 2f696e63 6c756465 2f6c6f63 616c652e  /include/locale.
 0480 68002e2e 2f6c6f63 616c652f 6c6f6361  h.../locale/loca
 0490 6c652e68 006c636f 6e763a54 2831302c  le.h.lconv:T(10,
 04a0 31293d73 34386465 63696d61 6c5f706f  1)=s48decimal_po
 04b0 696e743a 2831302c 32293d2a 28302c32  int:(10,2)=*(0,2
 04c0 292c302c 33323b74 686f7573 616e6473  ),0,32;thousands
 04d0 5f736570 3a283130 2c32292c 33322c33  _sep:(10,2),32,3
 04e0 323b5c00 67726f75 70696e67 3a283130  2;\.grouping:(10
 04f0 2c32292c 36342c33 323b696e 745f6375  ,2),64,32;int_cu
 0500 72725f73 796d626f 6c3a2831 302c3229  rr_symbol:(10,2)
 0510 2c39362c 33323b5c 00637572 72656e63  ,96,32;\.currenc
 0520 795f7379 6d626f6c 3a283130 2c32292c  y_symbol:(10,2),
 0530 3132382c 33323b6d 6f6e5f64 6563696d  128,32;mon_decim
 0540 616c5f70 6f696e74 3a283130 2c32292c  al_point:(10,2),
 0550 3136302c 33323b5c 006d6f6e 5f74686f  160,32;\.mon_tho
 0560 7573616e 64735f73 65703a28 31302c32  usands_sep:(10,2
 0570 292c3139 322c3332 3b6d6f6e 5f67726f  ),192,32;mon_gro
 0580 7570696e 673a2831 302c3229 2c323234  uping:(10,2),224
 0590 2c33323b 5c00706f 73697469 76655f73  ,32;\.positive_s
 05a0 69676e3a 2831302c 32292c32 35362c33  ign:(10,2),256,3
 05b0 323b6e65 67617469 76655f73 69676e3a  2;negative_sign:
 05c0 2831302c 32292c32 38382c33 323b5c00  (10,2),288,32;\.
 05d0 696e745f 66726163 5f646967 6974733a  int_frac_digits:
 05e0 28302c32 292c3332 302c383b 66726163  (0,2),320,8;frac
 05f0 5f646967 6974733a 28302c32 292c3332  _digits:(0,2),32
 0600 382c383b 5c00705f 63735f70 72656365  8,8;\.p_cs_prece
 0610 6465733a 28302c32 292c3333 362c383b  des:(0,2),336,8;
 0620 705f7365 705f6279 5f737061 63653a28  p_sep_by_space:(
 0630 302c3229 2c333434 2c383b5c 006e5f63  0,2),344,8;\.n_c
 0640 735f7072 65636564 65733a28 302c3229  s_precedes:(0,2)
 0650 2c333532 2c383b6e 5f736570 5f62795f  ,352,8;n_sep_by_
 0660 73706163 653a2830 2c32292c 3336302c  space:(0,2),360,
 0670 383b5c00 705f7369 676e5f70 6f736e3a  8;\.p_sign_posn:
 0680 28302c32 292c3336 382c383b 6e5f7369  (0,2),368,8;n_si
 0690 676e5f70 6f736e3a 28302c32 292c3337  gn_posn:(0,2),37
 06a0 362c383b 3b002e2e 2f696e63 6c756465  6,8;;.../include
 06b0 2f786c6f 63616c65 2e68002e 2e2f6c6f  /xlocale.h.../lo
 06c0 63616c65 2f786c6f 63616c65 2e68005f  cale/xlocale.h._
 06d0 5f6c6f63 616c655f 73747275 63743a54  _locale_struct:T
 06e0 2831332c 31293d73 33365f5f 6c6f6361  (13,1)=s36__loca
 06f0 6c65733a 2831332c 32293d61 7228302c  les:(13,2)=ar(0,
 0700 31293b30 3b353b28 31332c33 293d2a28  1);0;5;(13,3)=*(
 0710 31332c34 293d7873 6c6f6361 6c655f64  13,4)=xslocale_d
 0720 6174613a 2c302c31 39323b5c 005f5f63  ata:,0,192;\.__c
 0730 74797065 5f623a28 31332c35 293d2a28  type_b:(13,5)=*(
 0740 302c3929 2c313932 2c33323b 5f5f6374  0,9),192,32;__ct
 0750 7970655f 746f6c6f 7765723a 2831332c  ype_tolower:(13,
 0760 36293d2a 28302c31 292c3232 342c3332  6)=*(0,1),224,32
 0770 3b5c005f 5f637479 70655f74 6f757070  ;\.__ctype_toupp
 0780 65723a28 31332c36 292c3235 362c3332  er:(13,6),256,32
 0790 3b3b005f 5f6c6f63 616c655f 743a7428  ;;.__locale_t:t(
 07a0 31332c37 293d2831 332c3829 3d2a2831  13,7)=(13,8)=*(1
 07b0 332c3129 002e2e2f 73797364 6570732f  3,1).../sysdeps/
 07c0 756e6978 2f737973 762f6c69 6e75782f  unix/sysv/linux/
 07d0 5f475f63 6f6e6669 672e6800 2e2e2f73  _G_config.h.../s
 07e0 79736465 70732f75 6e69782f 73797376  ysdeps/unix/sysv
 07f0 2f6c696e 75782f62 6974732f 74797065  /linux/bits/type
 0800 732e6800 73697a65 5f743a74 2831362c  s.h.size_t:t(16,
 0810 31293d28 302c3429 005f5f75 5f636861  1)=(0,4).__u_cha
 0820 723a7428 31352c31 293d2830 2c313129  r:t(15,1)=(0,11)
 0830 005f5f75 5f73686f 72743a74 2831352c  .__u_short:t(15,
 0840 32293d28 302c3929 005f5f75 5f696e74  2)=(0,9).__u_int
 0850 3a742831 352c3329 3d28302c 3429005f  :t(15,3)=(0,4)._
 0860 5f755f6c 6f6e673a 74283135 2c34293d  _u_long:t(15,4)=
 0870 28302c35 29005f5f 755f7175 61645f74  (0,5).__u_quad_t
 0880 3a742831 352c3529 3d28302c 3729005f  :t(15,5)=(0,7)._
 0890 5f717561 645f743a 74283135 2c36293d  _quad_t:t(15,6)=
 08a0 28302c36 29005f5f 696e7438 5f743a74  (0,6).__int8_t:t
 08b0 2831352c 37293d28 302c3130 29005f5f  (15,7)=(0,10).__
 08c0 75696e74 385f743a 74283135 2c38293d  uint8_t:t(15,8)=
 08d0 28302c31 3129005f 5f696e74 31365f74  (0,11).__int16_t
 08e0 3a742831 352c3929 3d28302c 3829005f  :t(15,9)=(0,8)._
 08f0 5f75696e 7431365f 743a7428 31352c31  _uint16_t:t(15,1
 0900 30293d28 302c3929 005f5f69 6e743332  0)=(0,9).__int32
 0910 5f743a74 2831352c 3131293d 28302c31  _t:t(15,11)=(0,1
 0920 29005f5f 75696e74 33325f74 3a742831  ).__uint32_t:t(1
 0930 352c3132 293d2830 2c342900 5f5f696e  5,12)=(0,4).__in
 0940 7436345f 743a7428 31352c31 33293d28  t64_t:t(15,13)=(
 0950 302c3629 005f5f75 696e7436 345f743a  0,6).__uint64_t:
 0960 74283135 2c313429 3d28302c 3729005f  t(15,14)=(0,7)._
 0970 5f716164 64725f74 3a742831 352c3135  _qaddr_t:t(15,15
 0980 293d2831 352c3136 293d2a28 31352c36  )=(15,16)=*(15,6
 0990 29005f5f 6465765f 743a7428 31352c31  ).__dev_t:t(15,1
 09a0 37293d28 31352c35 29005f5f 7569645f  7)=(15,5).__uid_
 09b0 743a7428 31352c31 38293d28 31352c33  t:t(15,18)=(15,3
 09c0 29005f5f 6769645f 743a7428 31352c31  ).__gid_t:t(15,1
 09d0 39293d28 31352c33 29005f5f 696e6f5f  9)=(15,3).__ino_
 09e0 743a7428 31352c32 30293d28 31352c34  t:t(15,20)=(15,4
 09f0 29005f5f 6d6f6465 5f743a74 2831352c  ).__mode_t:t(15,
 0a00 3231293d 2831352c 3329005f 5f6e6c69  21)=(15,3).__nli
 0a10 6e6b5f74 3a742831 352c3232 293d2831  nk_t:t(15,22)=(1
 0a20 352c3329 005f5f6f 66665f74 3a742831  5,3).__off_t:t(1
 0a30 352c3233 293d2830 2c332900 5f5f6c6f  5,23)=(0,3).__lo
 0a40 66665f74 3a742831 352c3234 293d2831  ff_t:t(15,24)=(1
 0a50 352c3629 005f5f70 69645f74 3a742831  5,6).__pid_t:t(1
 0a60 352c3235 293d2830 2c312900 5f5f7373  5,25)=(0,1).__ss
 0a70 697a655f 743a7428 31352c32 36293d28  ize_t:t(15,26)=(
 0a80 302c3129 005f5f72 6c696d5f 743a7428  0,1).__rlim_t:t(
 0a90 31352c32 37293d28 302c3329 005f5f72  15,27)=(0,3).__r
 0aa0 6c696d36 345f743a 74283135 2c323829  lim64_t:t(15,28)
 0ab0 3d283135 2c362900 5f5f6964 5f743a74  =(15,6).__id_t:t
 0ac0 2831352c 3239293d 2831352c 3329005f  (15,29)=(15,3)._
 0ad0 5f667369 645f743a 74283135 2c333029  _fsid_t:t(15,30)
 0ae0 3d283135 2c333129 3d73385f 5f76616c  =(15,31)=s8__val
 0af0 3a283135 2c333229 3d617228 302c3129  :(15,32)=ar(0,1)
 0b00 3b303b31 3b28302c 31292c30 2c36343b  ;0;1;(0,1),0,64;
 0b10 3b005f5f 64616464 725f743a 74283135  ;.__daddr_t:t(15
 0b20 2c333329 3d28302c 3129005f 5f636164  ,33)=(0,1).__cad
 0b30 64725f74 3a742831 352c3334 293d2831  dr_t:t(15,34)=(1
 0b40 302c3229 005f5f74 696d655f 743a7428  0,2).__time_t:t(
 0b50 31352c33 35293d28 302c3329 005f5f73  15,35)=(0,3).__s
 0b60 77626c6b 5f743a74 2831352c 3336293d  wblk_t:t(15,36)=
 0b70 28302c33 29005f5f 636c6f63 6b5f743a  (0,3).__clock_t:
 0b80 74283135 2c333729 3d28302c 3329005f  t(15,37)=(0,3)._
 0b90 5f66645f 6d61736b 3a742831 352c3338  _fd_mask:t(15,38
 0ba0 293d2830 2c352900 5f5f6664 5f736574  )=(0,5).__fd_set
 0bb0 3a742831 352c3339 293d2831 352c3430  :t(15,39)=(15,40
 0bc0 293d7331 32386664 735f6269 74733a28  )=s128fds_bits:(
 0bd0 31352c34 31293d61 7228302c 31293b30  15,41)=ar(0,1);0
 0be0 3b33313b 2831352c 3338292c 302c3130  ;31;(15,38),0,10
 0bf0 32343b3b 005f5f6b 65795f74 3a742831  24;;.__key_t:t(1
 0c00 352c3432 293d2830 2c312900 5f5f6970  5,42)=(0,1).__ip
 0c10 635f7069 645f743a 74283135 2c343329  c_pid_t:t(15,43)
 0c20 3d28302c 3929005f 5f626c6b 636e745f  =(0,9).__blkcnt_
 0c30 743a7428 31352c34 34293d28 302c3329  t:t(15,44)=(0,3)
 0c40 005f5f62 6c6b636e 7436345f 743a7428  .__blkcnt64_t:t(
 0c50 31352c34 35293d28 31352c36 29005f5f  15,45)=(15,6).__
 0c60 6673626c 6b636e74 5f743a74 2831352c  fsblkcnt_t:t(15,
 0c70 3436293d 2831352c 3429005f 5f667362  46)=(15,4).__fsb
 0c80 6c6b636e 7436345f 743a7428 31352c34  lkcnt64_t:t(15,4
 0c90 37293d28 31352c35 29005f5f 66736669  7)=(15,5).__fsfi
 0ca0 6c636e74 5f743a74 2831352c 3438293d  lcnt_t:t(15,48)=
 0cb0 2831352c 3429005f 5f667366 696c636e  (15,4).__fsfilcn
 0cc0 7436345f 743a7428 31352c34 39293d28  t64_t:t(15,49)=(
 0cd0 31352c35 29005f5f 696e6f36 345f743a  15,5).__ino64_t:
 0ce0 74283135 2c353029 3d283135 2c342900  t(15,50)=(15,4).
 0cf0 5f5f6f66 6636345f 743a7428 31352c35  __off64_t:t(15,5
 0d00 31293d28 31352c32 3429005f 5f745f73  1)=(15,24).__t_s
 0d10 63616c61 725f743a 74283135 2c353229  calar_t:t(15,52)
 0d20 3d28302c 3329005f 5f745f75 7363616c  =(0,3).__t_uscal
 0d30 61725f74 3a742831 352c3533 293d2830  ar_t:t(15,53)=(0
 0d40 2c352900 5f5f696e 74707472 5f743a74  ,5).__intptr_t:t
 0d50 2831352c 3534293d 28302c31 29002e2e  (15,54)=(0,1)...
 0d60 2f6c696e 75787468 72656164 732f7379  /linuxthreads/sy
 0d70 73646570 732f7074 68726561 642f6269  sdeps/pthread/bi
 0d80 74732f70 74687265 61647479 7065732e  ts/pthreadtypes.
 0d90 68002e2e 2f737973 64657073 2f756e69  h.../sysdeps/uni
 0da0 782f7379 73762f6c 696e7578 2f626974  x/sysv/linux/bit
 0db0 732f7363 6865642e 68005f5f 73636865  s/sched.h.__sche
 0dc0 645f7061 72616d3a 54283138 2c31293d  d_param:T(18,1)=
 0dd0 73347363 6865645f 7072696f 72697479  s4sched_priority
 0de0 3a28302c 31292c30 2c33323b 3b005f70  :(0,1),0,32;;._p
 0df0 74687265 61645f66 6173746c 6f636b3a  thread_fastlock:
 0e00 54283137 2c31293d 73385f5f 73746174  T(17,1)=s8__stat
 0e10 75733a28 302c3329 2c302c33 323b5f5f  us:(0,3),0,32;__
 0e20 7370696e 6c6f636b 3a28302c 31292c33  spinlock:(0,1),3
 0e30 322c3332 3b3b005f 70746872 6561645f  2,32;;._pthread_
 0e40 64657363 723a7428 31372c32 293d2831  descr:t(17,2)=(1
 0e50 372c3329 3d2a2831 372c3429 3d78735f  7,3)=*(17,4)=xs_
 0e60 70746872 6561645f 64657363 725f7374  pthread_descr_st
 0e70 72756374 3a007074 68726561 645f6174  ruct:.pthread_at
 0e80 74725f74 3a742831 372c3529 3d283137  tr_t:t(17,5)=(17
 0e90 2c36293d 7333365f 5f646574 61636873  ,6)=s36__detachs
 0ea0 74617465 3a28302c 31292c30 2c33323b  tate:(0,1),0,32;
 0eb0 5c005f5f 73636865 64706f6c 6963793a  \.__schedpolicy:
 0ec0 28302c31 292c3332 2c33323b 5f5f7363  (0,1),32,32;__sc
 0ed0 68656470 6172616d 3a283138 2c31292c  hedparam:(18,1),
 0ee0 36342c33 323b5c00 5f5f696e 68657269  64,32;\.__inheri
 0ef0 74736368 65643a28 302c3129 2c39362c  tsched:(0,1),96,
 0f00 33323b5f 5f73636f 70653a28 302c3129  32;__scope:(0,1)
 0f10 2c313238 2c33323b 5c005f5f 67756172  ,128,32;\.__guar
 0f20 6473697a 653a2831 362c3129 2c313630  dsize:(16,1),160
 0f30 2c33323b 5f5f7374 61636b61 6464725f  ,32;__stackaddr_
 0f40 7365743a 28302c31 292c3139 322c3332  set:(0,1),192,32
 0f50 3b5c005f 5f737461 636b6164 64723a28  ;\.__stackaddr:(
 0f60 31372c37 293d2a28 302c3139 292c3232  17,7)=*(0,19),22
 0f70 342c3332 3b5f5f73 7461636b 73697a65  4,32;__stacksize
 0f80 3a283136 2c31292c 3235362c 33323b3b  :(16,1),256,32;;
 0f90 00707468 72656164 5f636f6e 645f743a  .pthread_cond_t:
 0fa0 74283137 2c38293d 2831372c 39293d73  t(17,8)=(17,9)=s
 0fb0 31325f5f 635f6c6f 636b3a28 31372c31  12__c_lock:(17,1
 0fc0 292c302c 36343b5c 005f5f63 5f776169  ),0,64;\.__c_wai
 0fd0 74696e67 3a283137 2c32292c 36342c33  ting:(17,2),64,3
 0fe0 323b3b00 70746872 6561645f 636f6e64  2;;.pthread_cond
 0ff0 61747472 5f743a74 2831372c 3130293d  attr_t:t(17,10)=
 1000 2831372c 3131293d 73345f5f 64756d6d  (17,11)=s4__dumm
 1010 793a2830 2c31292c 302c3332 3b3b0070  y:(0,1),0,32;;.p
 1020 74687265 61645f6b 65795f74 3a742831  thread_key_t:t(1
 1030 372c3132 293d2830 2c342900 70746872  7,12)=(0,4).pthr
 1040 6561645f 6d757465 785f743a 74283137  ead_mutex_t:t(17
 1050 2c313329 3d283137 2c313429 3d733234  ,13)=(17,14)=s24
 1060 5f5f6d5f 72657365 72766564 3a28302c  __m_reserved:(0,
 1070 31292c30 2c33323b 5c005f5f 6d5f636f  1),0,32;\.__m_co
 1080 756e743a 28302c31 292c3332 2c33323b  unt:(0,1),32,32;
 1090 5f5f6d5f 6f776e65 723a2831 372c3229  __m_owner:(17,2)
 10a0 2c36342c 33323b5c 005f5f6d 5f6b696e  ,64,32;\.__m_kin
 10b0 643a2830 2c31292c 39362c33 323b5f5f  d:(0,1),96,32;__
 10c0 6d5f6c6f 636b3a28 31372c31 292c3132  m_lock:(17,1),12
 10d0 382c3634 3b3b0070 74687265 61645f6d  8,64;;.pthread_m
 10e0 75746578 61747472 5f743a74 2831372c  utexattr_t:t(17,
 10f0 3135293d 2831372c 3136293d 73345f5f  15)=(17,16)=s4__
 1100 6d757465 786b696e 643a2830 2c31292c  mutexkind:(0,1),
 1110 302c3332 3b3b0070 74687265 61645f6f  0,32;;.pthread_o
 1120 6e63655f 743a7428 31372c31 37293d28  nce_t:t(17,17)=(
 1130 302c3129 005f7074 68726561 645f7277  0,1)._pthread_rw
 1140 6c6f636b 5f743a54 2831372c 3138293d  lock_t:T(17,18)=
 1150 7333325f 5f72775f 6c6f636b 3a283137  s32__rw_lock:(17
 1160 2c31292c 302c3634 3b5f5f72 775f7265  ,1),0,64;__rw_re
 1170 61646572 733a2830 2c31292c 36342c33  aders:(0,1),64,3
 1180 323b5c00 5f5f7277 5f777269 7465723a  2;\.__rw_writer:
 1190 2831372c 32292c39 362c3332 3b5f5f72  (17,2),96,32;__r
 11a0 775f7265 61645f77 61697469 6e673a28  w_read_waiting:(
 11b0 31372c32 292c3132 382c3332 3b5c005f  17,2),128,32;\._
 11c0 5f72775f 77726974 655f7761 6974696e  _rw_write_waitin
 11d0 673a2831 372c3229 2c313630 2c33323b  g:(17,2),160,32;
 11e0 5f5f7277 5f6b696e 643a2830 2c31292c  __rw_kind:(0,1),
 11f0 3139322c 33323b5c 005f5f72 775f7073  192,32;\.__rw_ps
 1200 68617265 643a2830 2c31292c 3232342c  hared:(0,1),224,
 1210 33323b3b 00707468 72656164 5f72776c  32;;.pthread_rwl
 1220 6f636b5f 743a7428 31372c31 39293d28  ock_t:t(17,19)=(
 1230 31372c31 38290070 74687265 61645f72  17,18).pthread_r
 1240 776c6f63 6b617474 725f743a 74283137  wlockattr_t:t(17
 1250 2c323029 3d283137 2c323129 3d73385f  ,20)=(17,21)=s8_
 1260 5f6c6f63 6b6b696e 643a2830 2c31292c  _lockkind:(0,1),
 1270 302c3332 3b5c005f 5f707368 61726564  0,32;\.__pshared
 1280 3a28302c 31292c33 322c3332 3b3b0070  :(0,1),32,32;;.p
 1290 74687265 61645f74 3a742831 372c3232  thread_t:t(17,22
 12a0 293d2830 2c352900 77636861 725f743a  )=(0,5).wchar_t:
 12b0 74283139 2c31293d 28302c33 29007769  t(19,1)=(0,3).wi
 12c0 6e745f74 3a742831 392c3229 3d28302c  nt_t:t(19,2)=(0,
 12d0 3429005f 475f696e 7431365f 743a7428  4)._G_int16_t:t(
 12e0 31342c31 293d2830 2c382900 5f475f69  14,1)=(0,8)._G_i
 12f0 6e743332 5f743a74 2831342c 32293d28  nt32_t:t(14,2)=(
 1300 302c3129 005f475f 75696e74 31365f74  0,1)._G_uint16_t
 1310 3a742831 342c3329 3d28302c 3929005f  :t(14,3)=(0,9)._
 1320 475f7569 6e743332 5f743a74 2831342c  G_uint32_t:t(14,
 1330 34293d28 302c3429 005f494f 5f737464  4)=(0,4)._IO_std
 1340 696e5f75 7365643a 4728302c 312900    in_used:G(0,1). 
Contents of section .comment:
 0000 00474343 3a202847 4e552920 65676373  .GCC: (GNU) egcs
 0010 2d322e39 312e3636 20313939 39303331  -2.91.66 1999031
 0020 342f4c69 6e757820 28656763 732d312e  4/Linux (egcs-1.
 0030 312e3220 72656c65 61736529 00004743  1.2 release)..GC
 0040 433a2028 474e5529 20656763 732d322e  C: (GNU) egcs-2.
 0050 39312e36 36203139 39393033 31342f4c  91.66 19990314/L
 0060 696e7578 20286567 63732d31 2e312e32  inux (egcs-1.1.2
 0070 2072656c 65617365 29000047 43433a20   release)..GCC: 
 0080 28474e55 2920322e 39352e33 20323030  (GNU) 2.95.3 200
 0090 31303331 35202872 656c6561 73652900  10315 (release).
 00a0 00474343 3a202847 4e552920 322e3935  .GCC: (GNU) 2.95
 00b0 2e332032 30303130 33313520 2872656c  .3 20010315 (rel
 00c0 65617365 29000047 43433a20 28474e55  ease)..GCC: (GNU
 00d0 2920322e 39352e33 20323030 31303331  ) 2.95.3 2001031
 00e0 35202872 656c6561 73652900 00474343  5 (release)..GCC
 00f0 3a202847 4e552920 322e3935 2e332032  : (GNU) 2.95.3 2
 0100 30303130 33313520 2872656c 65617365  0010315 (release
 0110 29000047 43433a20 28474e55 2920322e  )..GCC: (GNU) 2.
 0120 39352e33 20323030 31303331 35202872  95.3 20010315 (r
 0130 656c6561 73652900 00474343 3a202847  elease)..GCC: (G
 0140 4e552920 65676373 2d322e39 312e3636  NU) egcs-2.91.66
 0150 20313939 39303331 342f4c69 6e757820   19990314/Linux 
 0160 28656763 732d312e 312e3220 72656c65  (egcs-1.1.2 rele
 0170 61736529 00                          ase).           
Contents of section .debug_aranges:
 0000 1c000000 02000000 00000400 04000000  ................
 0010 b0890408 6d010000 00000000 00000000  ....m...........
Contents of section .debug_pubnames:
 0000 22000000 02000000 0000630b 0000cc04  ".........c.....
 0010 00006d61 696e004d 0b000069 6e66696c  ..main.M...infil
 0020 65000000 0000                        e.....          
Contents of section .debug_info:
 0000 5f0b0000 02000000 00000401 626f6d62  _...........bomb
 0010 2e63002f 75737230 2f64726f 682f3231  .c./usr0/droh/21
 0020 332f7072 69766174 652f4c32 2f737263  3/private/L2/src
 0030 00474e55 20432032 2e39352e 33203230  .GNU C 2.95.3 20
 0040 30313033 31352028 72656c65 61736529  010315 (release)
 0050 0001b089 04081d8b 04080000 0000028f  ................
 0060 00000001 76707269 6e746600 0122018f  ....vprintf.."..
 0070 00000003 035f5f66 6d740001 21960000  .....__fmt..!...
 0080 00035f5f 61726700 0121a900 00000004  ..__arg..!......
 0090 696e7400 04050504 9c000000 06a10000  int.............
 00a0 00046368 61720001 06070408 01676574  ..char.......get
 00b0 63686172 00012901 8f000000 0302e600  char..).........
 00c0 00000167 6574635f 756e6c6f 636b6564  ...getc_unlocked
 00d0 00013201 8f000000 03035f5f 66700001  ..2.......__fp..
 00e0 31e50200 000009e5 0200005f 494f5f46  1.........._IO_F
 00f0 494c4500 9402300a 5f666c61 67730003  ILE...0._flags..
 0100 be8f0000 00022300 0a5f494f 5f726561  ......#.._IO_rea
 0110 645f7074 720003c3 eb020000 0223040a  d_ptr........#..
 0120 5f494f5f 72656164 5f656e64 0003c4eb  _IO_read_end....
 0130 02000002 23080a5f 494f5f72 6561645f  ....#.._IO_read_
 0140 62617365 0003c5eb 02000002 230c0a5f  base........#.._
 0150 494f5f77 72697465 5f626173 650003c6  IO_write_base...
 0160 eb020000 0223100a 5f494f5f 77726974  .....#.._IO_writ
 0170 655f7074 720003c7 eb020000 0223140a  e_ptr........#..
 0180 5f494f5f 77726974 655f656e 640003c8  _IO_write_end...
 0190 eb020000 0223180a 5f494f5f 6275665f  .....#.._IO_buf_
 01a0 62617365 0003c9eb 02000002 231c0a5f  base........#.._
 01b0 494f5f62 75665f65 6e640003 caeb0200  IO_buf_end......
 01c0 00022320 0a5f494f 5f736176 655f6261  ..# ._IO_save_ba
 01d0 73650003 cceb0200 00022324 0a5f494f  se........#$._IO
 01e0 5f626163 6b75705f 62617365 0003cdeb  _backup_base....
 01f0 02000002 23280a5f 494f5f73 6176655f  ....#(._IO_save_
 0200 656e6400 03ceeb02 00000223 2c0a5f6d  end........#,._m
 0210 61726b65 72730003 d0340300 00022330  arkers...4....#0
 0220 0a5f6368 61696e00 03d23a03 00000223  ._chain...:....#
 0230 340a5f66 696c656e 6f0003d4 8f000000  4._fileno.......
 0240 0223380a 5f626c6b 73697a65 0003d58f  .#8._blksize....
 0250 00000002 233c0a5f 6f6c645f 6f666673  ....#<._old_offs
 0260 65740003 d6400300 00022340 0a5f6375  et...@....#@._cu
 0270 725f636f 6c756d6e 0003da4b 03000002  r_column...K....
 0280 23440a5f 76746162 6c655f6f 66667365  #D._vtable_offse
 0290 740003db 61030000 0223460a 5f73686f  t...a....#F._sho
 02a0 72746275 660003dc 70030000 0223470a  rtbuf...p....#G.
 02b0 5f6c6f63 6b0003e0 7c030000 0223480a  _lock...|....#H.
 02c0 5f6f6666 73657400 03e97e03 00000223  _offset...~....#
 02d0 4c0a5f75 6e757365 64320003 eb8b0300  L._unused2......
 02e0 00022354 000504e6 00000005 04a10000  ..#T............
 02f0 00093403 00005f49 4f5f6d61 726b6572  ..4..._IO_marker
 0300 000c03aa 0a5f6e65 78740003 ab340300  ....._next...4..
 0310 00022300 0a5f7362 75660003 ac3a0300  ..#.._sbuf...:..
 0320 00022304 0a5f706f 730003b0 8f000000  ..#.._pos.......
 0330 02230800 0504f102 00000504 e6000000  .#..............
 0340 045f5f6f 66665f74 00040504 73686f72  .__off_t....shor
 0350 7420756e 7369676e 65642069 6e740002  t unsigned int..
 0360 07047369 676e6564 20636861 72000106  ..signed char...
 0370 0b7c0300 00a10000 000c0000 0704045f  .|............._
 0380 5f6f6666 36345f74 0008050b 97030000  _off64_t........
 0390 8f000000 0c0f0008 01676574 63686172  .........getchar
 03a0 5f756e6c 6f636b65 64000139 018f0000  _unlocked..9....
 03b0 000302d4 03000001 70757463 68617200  ........putchar.
 03c0 0142018f 00000003 035f5f63 0001418f  .B.......__c..A.
 03d0 00000000 020d0400 00016670 7574635f  ..........fputc_
 03e0 756e6c6f 636b6564 00014b01 8f000000  unlocked..K.....
 03f0 03035f5f 6300014a 8f000000 035f5f73  ..__c..J.....__s
 0400 74726561 6d00014a e5020000 00024504  tream..J......E.
 0410 00000170 7574635f 756e6c6f 636b6564  ...putc_unlocked
 0420 00015501 8f000000 03035f5f 63000154  ..U.......__c..T
 0430 8f000000 035f5f73 74726561 6d000154  .....__stream..T
 0440 e5020000 00027004 00000170 75746368  ......p....putch
 0450 61725f75 6e6c6f63 6b656400 015c018f  ar_unlocked..\..
 0460 00000003 035f5f63 00015b8f 00000000  .....__c..[.....
 0470 029d0400 00016665 6f665f75 6e6c6f63  ......feof_unloc
 0480 6b656400 0170018f 00000003 035f5f73  ked..p.......__s
 0490 74726561 6d00016f e5020000 0002cc04  tream..o........
 04a0 00000166 6572726f 725f756e 6c6f636b  ...ferror_unlock
 04b0 65640001 77018f00 00000303 5f5f7374  ed..w.......__st
 04c0 7265616d 000176e5 02000000 0d140500  ream..v.........
 04d0 00016d61 696e0004 24018f00 0000b089  ..main..$.......
 04e0 04081d8b 04080155 0e617267 63000423  .......U.argc..#
 04f0 8f000000 01500e61 72677600 04231405  .....P.argv..#..
 0500 00000153 0f696e70 75740004 25eb0200  ...S.input..%...
 0510 00015000 0504eb02 00001073 697a655f  ..P........size_
 0520 740005aa 28050000 04756e73 69676e65  t...(....unsigne
 0530 6420696e 74000407 105f5f67 6e75635f  d int....__gnuc_
 0540 76615f6c 69737400 06494e05 00000704  va_list..IN.....
 0550 105f5f75 5f636861 72000720 60050000  .__u_char.. `...
 0560 04756e73 69676e65 64206368 61720001  .unsigned char..
 0570 08105f5f 755f7368 6f727400 07214b03  ..__u_short..!K.
 0580 0000105f 5f755f69 6e740007 22280500  ...__u_int.."(..
 0590 00105f5f 755f6c6f 6e670007 23a10500  ..__u_long..#...
 05a0 00046c6f 6e672075 6e736967 6e656420  ..long unsigned 
 05b0 696e7400 0407105f 5f755f71 7561645f  int....__u_quad_
 05c0 74000725 c8050000 046c6f6e 67206c6f  t..%.....long lo
 05d0 6e672075 6e736967 6e656420 696e7400  ng unsigned int.
 05e0 0807105f 5f717561 645f7400 0726f205  ...__quad_t..&..
 05f0 0000046c 6f6e6720 6c6f6e67 20696e74  ...long long int
 0600 00080510 5f5f696e 74385f74 00073161  ....__int8_t..1a
 0610 03000010 5f5f7569 6e74385f 74000732  ....__uint8_t..2
 0620 60050000 105f5f69 6e743136 5f740007  `....__int16_t..
 0630 33350600 00047368 6f727420 696e7400  35....short int.
 0640 0205105f 5f75696e 7431365f 74000734  ...__uint16_t..4
 0650 4b030000 105f5f69 6e743332 5f740007  K....__int32_t..
 0660 358f0000 00105f5f 75696e74 33325f74  5.....__uint32_t
 0670 00073628 05000010 5f5f696e 7436345f  ..6(....__int64_
 0680 74000738 f2050000 105f5f75 696e7436  t..8.....__uint6
 0690 345f7400 0739c805 0000105f 5f716164  4_t..9.....__qad
 06a0 64725f74 00073bab 06000005 04e20500  dr_t..;.........
 06b0 00105f5f 6465765f 7400073d b6050000  ..__dev_t..=....
 06c0 105f5f75 69645f74 00073e82 05000010  .__uid_t..>.....
 06d0 5f5f6769 645f7400 073f8205 0000105f  __gid_t..?....._
 06e0 5f696e6f 5f740007 40910500 00105f5f  _ino_t..@.....__
 06f0 6d6f6465 5f740007 41820500 00105f5f  mode_t..A.....__
 0700 6e6c696e 6b5f7400 07428205 0000105f  nlink_t..B....._
 0710 5f6f6666 5f740007 431d0700 00046c6f  _off_t..C.....lo
 0720 6e672069 6e740004 05105f5f 6c6f6666  ng int....__loff
 0730 5f740007 44e20500 00105f5f 7069645f  _t..D.....__pid_
 0740 74000745 8f000000 105f5f73 73697a65  t..E.....__ssize
 0750 5f740007 468f0000 00105f5f 726c696d  _t..F.....__rlim
 0760 5f740007 471d0700 00105f5f 726c696d  _t..G.....__rlim
 0770 36345f74 000748e2 05000010 5f5f6964  64_t..H.....__id
 0780 5f740007 49820500 0011a207 00000807  _t..I...........
 0790 4e0a5f5f 76616c00 074da207 00000223  N.__val..M.....#
 07a0 00000bae 0700008f 0000000c 0100105f  ..............._
 07b0 5f667369 645f7400 074e8907 0000105f  _fsid_t..N....._
 07c0 5f646164 64725f74 0007518f 00000010  _daddr_t..Q.....
 07d0 5f5f6361 6464725f 74000752 eb020000  __caddr_t..R....
 07e0 105f5f74 696d655f 74000753 1d070000  .__time_t..S....
 07f0 105f5f73 77626c6b 5f740007 541d0700  .__swblk_t..T...
 0800 00105f5f 636c6f63 6b5f7400 07561d07  ..__clock_t..V..
 0810 0000105f 5f66645f 6d61736b 000759a1  ...__fd_mask..Y.
 0820 05000011 41080000 80076f0a 5f5f6664  ....A.....o.__fd
 0830 735f6269 74730007 6c410800 00022300  s_bits..lA....#.
 0840 000b4d08 00001208 00000c1f 00105f5f  ..M...........__
 0850 66645f73 65740007 6f230800 00105f5f  fd_set..o#....__
 0860 6b65795f 74000772 8f000000 105f5f69  key_t..r.....__i
 0870 70635f70 69645f74 0007754b 03000010  pc_pid_t..uK....
 0880 5f5f626c 6b636e74 5f740007 7b1d0700  __blkcnt_t..{...
 0890 00105f5f 626c6b63 6e743634 5f740007  ..__blkcnt64_t..
 08a0 7ce20500 00105f5f 6673626c 6b636e74  |.....__fsblkcnt
 08b0 5f740007 7f910500 00105f5f 6673626c  _t........__fsbl
 08c0 6b636e74 36345f74 000780b6 05000010  kcnt64_t........
 08d0 5f5f6673 66696c63 6e745f74 00078391  __fsfilcnt_t....
 08e0 05000010 5f5f6673 66696c63 6e743634  ....__fsfilcnt64
 08f0 5f740007 84b60500 00105f5f 696e6f36  _t........__ino6
 0900 345f7400 07879105 0000105f 5f6f6666  4_t........__off
 0910 36345f74 00078a29 07000010 5f5f745f  64_t...)....__t_
 0920 7363616c 61725f74 00078d1d 07000010  scalar_t........
 0930 5f5f745f 75736361 6c61725f 7400078e  __t_uscalar_t...
 0940 a1050000 105f5f69 6e747074 725f7400  .....__intptr_t.
 0950 07918f00 00001046 494c4500 0230e600  .......FILE..0..
 0960 00001077 63686172 5f740005 ff1d0700  ...wchar_t......
 0970 00127769 6e745f74 00051801 28050000  ..wint_t....(...
 0980 105f475f 696e7431 365f7400 08233506  ._G_int16_t..#5.
 0990 0000105f 475f696e 7433325f 74000824  ..._G_int32_t..$
 09a0 8f000000 105f475f 75696e74 31365f74  ....._G_uint16_t
 09b0 0008254b 03000010 5f475f75 696e7433  ..%K...._G_uint3
 09c0 325f7400 08262805 0000135f 494f5f6a  2_t..&(...._IO_j
 09d0 756d705f 74000114 5f494f5f 6c6f636b  ump_t..._IO_lock
 09e0 5f740003 a4105f49 4f5f4649 4c450003  _t...._IO_FILE..
 09f0 f0e60000 00135f49 4f5f4649 4c455f70  ......_IO_FILE_p
 0a00 6c757300 01125f5f 696f5f72 6561645f  lus...__io_read_
 0a10 666e0003 07011a0a 00001534 0a000001  fn.........4....
 0a20 48070000 164e0500 0016eb02 0000161a  H....N..........
 0a30 05000000 125f5f69 6f5f7772 6974655f  .....__io_write_
 0a40 666e0003 10014a0a 00001564 0a000001  fn....J....d....
 0a50 48070000 164e0500 00169600 0000161a  H....N..........
 0a60 05000000 125f5f69 6f5f7365 656b5f66  .....__io_seek_f
 0a70 6e000318 01790a00 0015930a 0000018f  n....y..........
 0a80 00000016 4e050000 160e0700 00168f00  ....N...........
 0a90 00000012 5f5f696f 5f636c6f 73655f66  ....__io_close_f
 0aa0 6e00031b 01a90a00 0015b90a 0000018f  n...............
 0ab0 00000016 4e050000 00106670 6f735f74  ....N.....fpos_t
 0ac0 00023d0e 07000017 73746469 6e000272  ..=.....stdin..r
 0ad0 e5020000 01011773 74646f75 74000273  .......stdout..s
 0ae0 e5020000 0101126f 66665f74 0002dd01  .......off_t....
 0af0 0e070000 09370b00 006e6f64 65537472  .....7...nodeStr
 0b00 75637400 0c090c0a 76616c75 6500090d  uct.....value...
 0b10 8f000000 0223000a 696e6465 7800090e  .....#..index...
 0b20 8f000000 0223040a 6e657874 00090f37  .....#..next...7
 0b30 0b000002 23080005 04f40a00 00106c69  ....#.........li
 0b40 73744e6f 64650009 10f40a00 0018696e  stNode........in
 0b50 66696c65 000421e5 02000001 050364b6  file..!.......d.
 0b60 040800                               ...             
Contents of section .debug_abbrev:
 0000 01110103 081b0825 08130b11 01120110  .......%........
 0010 06000002 2e010113 3f0c0308 3a0b3b0b  ........?...:.;.
 0020 270c4913 200b0000 03050003 083a0b3b  '.I. ........:.;
 0030 0b491300 00042400 03080b0b 3e0b0000  .I....$.....>...
 0040 050f000b 0b491300 00062600 49130000  .....I....&.I...
 0050 070f000b 0b000008 2e003f0c 03083a0b  ..........?...:.
 0060 3b0b270c 4913200b 00000913 01011303  ;.'.I. .........
 0070 080b0b3a 0b3b0b00 000a0d00 03083a0b  ...:.;........:.
 0080 3b0b4913 380a0000 0b010101 13491300  ;.I.8........I..
 0090 000c2100 2f0b0000 0d2e0101 133f0c03  ..!./........?..
 00a0 083a0b3b 0b270c49 13110112 01400a00  .:.;.'.I.....@..
 00b0 000e0500 03083a0b 3b0b4913 020a0000  ......:.;.I.....
 00c0 0f340003 083a0b3b 0b491302 0a000010  .4...:.;.I......
 00d0 16000308 3a0b3b0b 49130000 11130101  ....:.;.I.......
 00e0 130b0b3a 0b3b0b00 00121600 03083a0b  ...:.;........:.
 00f0 3b054913 00001313 0003083c 0c000014  ;.I........<....
 0100 16000308 3a0b3b0b 00001515 01011327  ....:.;........'
 0110 0c491300 00160500 49130000 17340003  .I......I....4..
 0120 083a0b3b 0b49133f 0c3c0c00 00183400  .:.;.I.?.<....4.
 0130 03083a0b 3b0b4913 3f0c020a 000000    ..:.;.I.?...... 
Contents of section .debug_line:
 0000 a4020000 02005a01 00000401 f6f50a00  ......Z.........
 0010 01010101 00000001 002f7573 722f696e  ........./usr/in
 0020 636c7564 652f6269 74732f73 7464696f  clude/bits/stdio
 0030 2e680000 00002f75 73722f69 6e636c75  .h..../usr/inclu
 0040 64652f73 7464696f 2e680000 00002f75  de/stdio.h..../u
 0050 73722f69 6e636c75 64652f6c 6962696f  sr/include/libio
 0060 2e680000 0000626f 6d622e63 00000000  .h....bomb.c....
 0070 2f757372 2f6c6f63 616c2f6c 69626578  /usr/local/libex
 0080 65632f67 63632d32 2e39352e 332f6c69  ec/gcc-2.95.3/li
 0090 622f6763 632d6c69 622f6936 38362d70  b/gcc-lib/i686-p
 00a0 632d6c69 6e75782d 676e752f 322e3935  c-linux-gnu/2.95
 00b0 2e332f69 6e636c75 64652f73 74646465  .3/include/stdde
 00c0 662e6800 0000002f 7573722f 6c6f6361  f.h..../usr/loca
 00d0 6c2f6c69 62657865 632f6763 632d322e  l/libexec/gcc-2.
 00e0 39352e33 2f6c6962 2f676363 2d6c6962  95.3/lib/gcc-lib
 00f0 2f693638 362d7063 2d6c696e 75782d67  /i686-pc-linux-g
 0100 6e752f32 2e39352e 332f696e 636c7564  nu/2.95.3/includ
 0110 652f7374 64617267 2e680000 00002f75  e/stdarg.h..../u
 0120 73722f69 6e636c75 64652f62 6974732f  sr/include/bits/
 0130 74797065 732e6800 0000002f 7573722f  types.h..../usr/
 0140 696e636c 7564652f 5f475f63 6f6e6669  include/_G_confi
 0150 672e6800 00000070 68617365 732e6800  g.h....phases.h.
 0160 00000000 000502b7 89040804 04370005  .............7..
 0170 02bd8904 08150005 02bd8904 081b0005  ................
 0180 02c28904 08150005 02cc8904 08150005  ................
 0190 02d08904 081a0005 02d58904 08150005  ................
 01a0 02f28904 08150005 02068a04 08150005  ................
 01b0 02108a04 081a0005 02208a04 08150005  ......... ......
 01c0 02308a04 08180005 02358a04 08160005  .0.......5......
 01d0 02428a04 08150005 024f8a04 08170005  .B.......O......
 01e0 02578a04 08150005 02608a04 08150005  .W.......`......
 01f0 02658a04 08160005 02728a04 08180005  .e.......r......
 0200 027a8a04 08150005 02838a04 08150005  .z..............
 0210 02888a04 08150005 02958a04 08180005  ................
 0220 029d8a04 08150005 02a68a04 08150005  ................
 0230 02ab8a04 08150005 02b88a04 08170005  ................
 0240 02c08a04 08150005 02c98a04 08150005  ................
 0250 02ce8a04 08150005 02db8a04 08170005  ................
 0260 02e38a04 08150005 02ec8a04 08150005  ................
 0270 02f18a04 08150005 02fe8a04 08180005  ................
 0280 02068b04 08150005 020f8b04 08150005  ................
 0290 02148b04 08190005 021d8b04 08150005  ................
 02a0 021d8b04 08000101                    ........        
Contents of section .note:
 804bd10 08000000 00000000 01000000 30312e30  ............01.0
 804bd20 31000000 08000000 00000000 01000000  1...............
 804bd30 30312e30 31000000 08000000 00000000  01.01...........
 804bd40 01000000 30312e30 31000000 08000000  ....01.01.......
 804bd50 00000000 01000000 30312e30 31000000  ........01.01...
 804bd60 08000000 00000000 01000000 30312e30  ............01.0
 804bd70 31000000 08000000 00000000 01000000  1...............
 804bd80 30312e30 31000000 08000000 00000000  01.01...........
 804bd90 01000000 30312e30 31000000 08000000  ....01.01.......
 804bda0 00000000 01000000 30312e30 31000000  ........01.01...

Disassembly of section .init:

080486e0 <_init>:
 80486e0:	55                   	push   %ebp
 80486e1:	89 e5                	mov    %esp,%ebp
 80486e3:	53                   	push   %ebx
 80486e4:	e8 00 00 00 00       	call   80486e9 <_init+0x9>
 80486e9:	5b                   	pop    %ebx
 80486ea:	81 c3 2f 2e 00 00    	add    $0x2e2f,%ebx
 80486f0:	83 bb 7c 00 00 00 00 	cmpl   $0x0,0x7c(%ebx)
 80486f7:	74 05                	je     80486fe <_init+0x1e>
 80486f9:	e8 02 79 fb f7       	call   0 <_init-0x80486e0>
 80486fe:	89 f6                	mov    %esi,%esi
 8048700:	e8 6b 02 00 00       	call   8048970 <frame_dummy>
 8048705:	e8 a6 0e 00 00       	call   80495b0 <__do_global_ctors_aux>
 804870a:	8b 5d fc             	mov    -0x4(%ebp),%ebx
 804870d:	c9                   	leave  
 804870e:	c3                   	ret    

Disassembly of section .plt:

08048710 <.plt>:
 8048710:	ff 35 1c b5 04 08    	push   0x804b51c
 8048716:	ff 25 20 b5 04 08    	jmp    *0x804b520
 804871c:	00 00                	add    %al,(%eax)
	...

08048720 <__register_frame_info@plt>:
 8048720:	ff 25 24 b5 04 08    	jmp    *0x804b524
 8048726:	68 00 00 00 00       	push   $0x0
 804872b:	e9 e0 ff ff ff       	jmp    8048710 <.plt>

08048730 <close@plt>:
 8048730:	ff 25 28 b5 04 08    	jmp    *0x804b528
 8048736:	68 08 00 00 00       	push   $0x8
 804873b:	e9 d0 ff ff ff       	jmp    8048710 <.plt>

08048740 <fprintf@plt>:
 8048740:	ff 25 2c b5 04 08    	jmp    *0x804b52c
 8048746:	68 10 00 00 00       	push   $0x10
 804874b:	e9 c0 ff ff ff       	jmp    8048710 <.plt>

08048750 <tmpfile@plt>:
 8048750:	ff 25 30 b5 04 08    	jmp    *0x804b530
 8048756:	68 18 00 00 00       	push   $0x18
 804875b:	e9 b0 ff ff ff       	jmp    8048710 <.plt>

08048760 <getenv@plt>:
 8048760:	ff 25 34 b5 04 08    	jmp    *0x804b534
 8048766:	68 20 00 00 00       	push   $0x20
 804876b:	e9 a0 ff ff ff       	jmp    8048710 <.plt>

08048770 <signal@plt>:
 8048770:	ff 25 38 b5 04 08    	jmp    *0x804b538
 8048776:	68 28 00 00 00       	push   $0x28
 804877b:	e9 90 ff ff ff       	jmp    8048710 <.plt>

08048780 <fflush@plt>:
 8048780:	ff 25 3c b5 04 08    	jmp    *0x804b53c
 8048786:	68 30 00 00 00       	push   $0x30
 804878b:	e9 80 ff ff ff       	jmp    8048710 <.plt>

08048790 <bcopy@plt>:
 8048790:	ff 25 40 b5 04 08    	jmp    *0x804b540
 8048796:	68 38 00 00 00       	push   $0x38
 804879b:	e9 70 ff ff ff       	jmp    8048710 <.plt>

080487a0 <rewind@plt>:
 80487a0:	ff 25 44 b5 04 08    	jmp    *0x804b544
 80487a6:	68 40 00 00 00       	push   $0x40
 80487ab:	e9 60 ff ff ff       	jmp    8048710 <.plt>

080487b0 <system@plt>:
 80487b0:	ff 25 48 b5 04 08    	jmp    *0x804b548
 80487b6:	68 48 00 00 00       	push   $0x48
 80487bb:	e9 50 ff ff ff       	jmp    8048710 <.plt>

080487c0 <__deregister_frame_info@plt>:
 80487c0:	ff 25 4c b5 04 08    	jmp    *0x804b54c
 80487c6:	68 50 00 00 00       	push   $0x50
 80487cb:	e9 40 ff ff ff       	jmp    8048710 <.plt>

080487d0 <fgets@plt>:
 80487d0:	ff 25 50 b5 04 08    	jmp    *0x804b550
 80487d6:	68 58 00 00 00       	push   $0x58
 80487db:	e9 30 ff ff ff       	jmp    8048710 <.plt>

080487e0 <sleep@plt>:
 80487e0:	ff 25 54 b5 04 08    	jmp    *0x804b554
 80487e6:	68 60 00 00 00       	push   $0x60
 80487eb:	e9 20 ff ff ff       	jmp    8048710 <.plt>

080487f0 <__strtol_internal@plt>:
 80487f0:	ff 25 58 b5 04 08    	jmp    *0x804b558
 80487f6:	68 68 00 00 00       	push   $0x68
 80487fb:	e9 10 ff ff ff       	jmp    8048710 <.plt>

08048800 <__libc_start_main@plt>:
 8048800:	ff 25 5c b5 04 08    	jmp    *0x804b55c
 8048806:	68 70 00 00 00       	push   $0x70
 804880b:	e9 00 ff ff ff       	jmp    8048710 <.plt>

08048810 <printf@plt>:
 8048810:	ff 25 60 b5 04 08    	jmp    *0x804b560
 8048816:	68 78 00 00 00       	push   $0x78
 804881b:	e9 f0 fe ff ff       	jmp    8048710 <.plt>

08048820 <fclose@plt>:
 8048820:	ff 25 64 b5 04 08    	jmp    *0x804b564
 8048826:	68 80 00 00 00       	push   $0x80
 804882b:	e9 e0 fe ff ff       	jmp    8048710 <.plt>

08048830 <gethostbyname@plt>:
 8048830:	ff 25 68 b5 04 08    	jmp    *0x804b568
 8048836:	68 88 00 00 00       	push   $0x88
 804883b:	e9 d0 fe ff ff       	jmp    8048710 <.plt>

08048840 <bzero@plt>:
 8048840:	ff 25 6c b5 04 08    	jmp    *0x804b56c
 8048846:	68 90 00 00 00       	push   $0x90
 804884b:	e9 c0 fe ff ff       	jmp    8048710 <.plt>

08048850 <exit@plt>:
 8048850:	ff 25 70 b5 04 08    	jmp    *0x804b570
 8048856:	68 98 00 00 00       	push   $0x98
 804885b:	e9 b0 fe ff ff       	jmp    8048710 <.plt>

08048860 <sscanf@plt>:
 8048860:	ff 25 74 b5 04 08    	jmp    *0x804b574
 8048866:	68 a0 00 00 00       	push   $0xa0
 804886b:	e9 a0 fe ff ff       	jmp    8048710 <.plt>

08048870 <connect@plt>:
 8048870:	ff 25 78 b5 04 08    	jmp    *0x804b578
 8048876:	68 a8 00 00 00       	push   $0xa8
 804887b:	e9 90 fe ff ff       	jmp    8048710 <.plt>

08048880 <fopen@plt>:
 8048880:	ff 25 7c b5 04 08    	jmp    *0x804b57c
 8048886:	68 b0 00 00 00       	push   $0xb0
 804888b:	e9 80 fe ff ff       	jmp    8048710 <.plt>

08048890 <dup@plt>:
 8048890:	ff 25 80 b5 04 08    	jmp    *0x804b580
 8048896:	68 b8 00 00 00       	push   $0xb8
 804889b:	e9 70 fe ff ff       	jmp    8048710 <.plt>

080488a0 <sprintf@plt>:
 80488a0:	ff 25 84 b5 04 08    	jmp    *0x804b584
 80488a6:	68 c0 00 00 00       	push   $0xc0
 80488ab:	e9 60 fe ff ff       	jmp    8048710 <.plt>

080488b0 <socket@plt>:
 80488b0:	ff 25 88 b5 04 08    	jmp    *0x804b588
 80488b6:	68 c8 00 00 00       	push   $0xc8
 80488bb:	e9 50 fe ff ff       	jmp    8048710 <.plt>

080488c0 <cuserid@plt>:
 80488c0:	ff 25 8c b5 04 08    	jmp    *0x804b58c
 80488c6:	68 d0 00 00 00       	push   $0xd0
 80488cb:	e9 40 fe ff ff       	jmp    8048710 <.plt>

080488d0 <strcpy@plt>:
 80488d0:	ff 25 90 b5 04 08    	jmp    *0x804b590
 80488d6:	68 d8 00 00 00       	push   $0xd8
 80488db:	e9 30 fe ff ff       	jmp    8048710 <.plt>

Disassembly of section .text:

080488e0 <_start>:
 80488e0:	31 ed                	xor    %ebp,%ebp
 80488e2:	5e                   	pop    %esi
 80488e3:	89 e1                	mov    %esp,%ecx
 80488e5:	83 e4 f8             	and    $0xfffffff8,%esp
 80488e8:	50                   	push   %eax
 80488e9:	54                   	push   %esp
 80488ea:	52                   	push   %edx
 80488eb:	68 e4 95 04 08       	push   $0x80495e4
 80488f0:	68 e0 86 04 08       	push   $0x80486e0
 80488f5:	51                   	push   %ecx
 80488f6:	56                   	push   %esi
 80488f7:	68 b0 89 04 08       	push   $0x80489b0
 80488fc:	e8 ff fe ff ff       	call   8048800 <__libc_start_main@plt>
 8048901:	f4                   	hlt    
 8048902:	90                   	nop
 8048903:	90                   	nop

08048904 <gcc2_compiled.>:
 8048904:	90 90 90 90 90 90 90 90 90 90 90 90                 ............

08048910 <__do_global_dtors_aux>:
 8048910:	55                   	push   %ebp
 8048911:	89 e5                	mov    %esp,%ebp
 8048913:	83 ec 08             	sub    $0x8,%esp
 8048916:	83 3d e8 ad 04 08 00 	cmpl   $0x0,0x804ade8
 804891d:	75 3e                	jne    804895d <__do_global_dtors_aux+0x4d>
 804891f:	eb 12                	jmp    8048933 <__do_global_dtors_aux+0x23>
 8048921:	a1 e4 ad 04 08       	mov    0x804ade4,%eax
 8048926:	8d 50 04             	lea    0x4(%eax),%edx
 8048929:	89 15 e4 ad 04 08    	mov    %edx,0x804ade4
 804892f:	8b 00                	mov    (%eax),%eax
 8048931:	ff d0                	call   *%eax
 8048933:	a1 e4 ad 04 08       	mov    0x804ade4,%eax
 8048938:	83 38 00             	cmpl   $0x0,(%eax)
 804893b:	75 e4                	jne    8048921 <__do_global_dtors_aux+0x11>
 804893d:	b8 c0 87 04 08       	mov    $0x80487c0,%eax
 8048942:	85 c0                	test   %eax,%eax
 8048944:	74 0d                	je     8048953 <__do_global_dtors_aux+0x43>
 8048946:	83 c4 f4             	add    $0xfffffff4,%esp
 8048949:	68 84 b4 04 08       	push   $0x804b484
 804894e:	e8 6d fe ff ff       	call   80487c0 <__deregister_frame_info@plt>
 8048953:	c7 05 e8 ad 04 08 01 	movl   $0x1,0x804ade8
 804895a:	00 00 00 
 804895d:	89 ec                	mov    %ebp,%esp
 804895f:	5d                   	pop    %ebp
 8048960:	c3                   	ret    
 8048961:	8d 76 00             	lea    0x0(%esi),%esi

08048964 <fini_dummy>:
 8048964:	55                   	push   %ebp
 8048965:	89 e5                	mov    %esp,%ebp
 8048967:	83 ec 08             	sub    $0x8,%esp
 804896a:	89 ec                	mov    %ebp,%esp
 804896c:	5d                   	pop    %ebp
 804896d:	c3                   	ret    
 804896e:	89 f6                	mov    %esi,%esi

08048970 <frame_dummy>:
 8048970:	55                   	push   %ebp
 8048971:	89 e5                	mov    %esp,%ebp
 8048973:	83 ec 08             	sub    $0x8,%esp
 8048976:	b8 20 87 04 08       	mov    $0x8048720,%eax
 804897b:	85 c0                	test   %eax,%eax
 804897d:	74 12                	je     8048991 <frame_dummy+0x21>
 804897f:	83 c4 f8             	add    $0xfffffff8,%esp
 8048982:	68 4c b6 04 08       	push   $0x804b64c
 8048987:	68 84 b4 04 08       	push   $0x804b484
 804898c:	e8 8f fd ff ff       	call   8048720 <__register_frame_info@plt>
 8048991:	89 ec                	mov    %ebp,%esp
 8048993:	5d                   	pop    %ebp
 8048994:	c3                   	ret    
 8048995:	8d 76 00             	lea    0x0(%esi),%esi

08048998 <init_dummy>:
 8048998:	55                   	push   %ebp
 8048999:	89 e5                	mov    %esp,%ebp
 804899b:	83 ec 08             	sub    $0x8,%esp
 804899e:	89 ec                	mov    %ebp,%esp
 80489a0:	5d                   	pop    %ebp
 80489a1:	c3                   	ret    
 80489a2:	90                   	nop
 80489a3:	90                   	nop
 80489a4:	90                   	nop
 80489a5:	90                   	nop
 80489a6:	90                   	nop
 80489a7:	90                   	nop
 80489a8:	90                   	nop
 80489a9:	90                   	nop
 80489aa:	90                   	nop
 80489ab:	90                   	nop
 80489ac:	90                   	nop
 80489ad:	90                   	nop
 80489ae:	90                   	nop
 80489af:	90                   	nop

080489b0 <main>:
 80489b0:	55                   	push   %ebp
 80489b1:	89 e5                	mov    %esp,%ebp
 80489b3:	83 ec 14             	sub    $0x14,%esp
 80489b6:	53                   	push   %ebx
 80489b7:	8b 45 08             	mov    0x8(%ebp),%eax
 80489ba:	8b 5d 0c             	mov    0xc(%ebp),%ebx
 80489bd:	83 f8 01             	cmp    $0x1,%eax
 80489c0:	75 0e                	jne    80489d0 <main+0x20>
 80489c2:	a1 48 b6 04 08       	mov    0x804b648,%eax
 80489c7:	a3 64 b6 04 08       	mov    %eax,0x804b664
 80489cc:	eb 62                	jmp    8048a30 <main+0x80>
 80489ce:	89 f6                	mov    %esi,%esi
 80489d0:	83 f8 02             	cmp    $0x2,%eax
 80489d3:	75 3b                	jne    8048a10 <main+0x60>
 80489d5:	83 c4 f8             	add    $0xfffffff8,%esp
 80489d8:	68 20 96 04 08       	push   $0x8049620
 80489dd:	8b 43 04             	mov    0x4(%ebx),%eax
 80489e0:	50                   	push   %eax
 80489e1:	e8 9a fe ff ff       	call   8048880 <fopen@plt>
 80489e6:	a3 64 b6 04 08       	mov    %eax,0x804b664
 80489eb:	83 c4 10             	add    $0x10,%esp
 80489ee:	85 c0                	test   %eax,%eax
 80489f0:	75 3e                	jne    8048a30 <main+0x80>
 80489f2:	83 c4 fc             	add    $0xfffffffc,%esp
 80489f5:	8b 43 04             	mov    0x4(%ebx),%eax
 80489f8:	50                   	push   %eax
 80489f9:	8b 03                	mov    (%ebx),%eax
 80489fb:	50                   	push   %eax
 80489fc:	68 22 96 04 08       	push   $0x8049622
 8048a01:	e8 0a fe ff ff       	call   8048810 <printf@plt>
 8048a06:	83 c4 f4             	add    $0xfffffff4,%esp
 8048a09:	6a 08                	push   $0x8
 8048a0b:	e8 40 fe ff ff       	call   8048850 <exit@plt>
 8048a10:	83 c4 f8             	add    $0xfffffff8,%esp
 8048a13:	8b 03                	mov    (%ebx),%eax
 8048a15:	50                   	push   %eax
 8048a16:	68 3f 96 04 08       	push   $0x804963f
 8048a1b:	e8 f0 fd ff ff       	call   8048810 <printf@plt>
 8048a20:	83 c4 f4             	add    $0xfffffff4,%esp
 8048a23:	6a 08                	push   $0x8
 8048a25:	e8 26 fe ff ff       	call   8048850 <exit@plt>
 8048a2a:	8d b6 00 00 00 00    	lea    0x0(%esi),%esi
 8048a30:	e8 2b 07 00 00       	call   8049160 <initialize_bomb>
 8048a35:	83 c4 f4             	add    $0xfffffff4,%esp
 8048a38:	68 60 96 04 08       	push   $0x8049660
 8048a3d:	e8 ce fd ff ff       	call   8048810 <printf@plt>
 8048a42:	83 c4 f4             	add    $0xfffffff4,%esp
 8048a45:	68 a0 96 04 08       	push   $0x80496a0
 8048a4a:	e8 c1 fd ff ff       	call   8048810 <printf@plt>
 8048a4f:	83 c4 20             	add    $0x20,%esp
 8048a52:	e8 a5 07 00 00       	call   80491fc <read_line>
 8048a57:	83 c4 f4             	add    $0xfffffff4,%esp
 8048a5a:	50                   	push   %eax
 8048a5b:	e8 c0 00 00 00       	call   8048b20 <phase_1>
 8048a60:	e8 c7 0a 00 00       	call   804952c <phase_defused>
 8048a65:	83 c4 f4             	add    $0xfffffff4,%esp
 8048a68:	68 e0 96 04 08       	push   $0x80496e0
 8048a6d:	e8 9e fd ff ff       	call   8048810 <printf@plt>
 8048a72:	83 c4 20             	add    $0x20,%esp
 8048a75:	e8 82 07 00 00       	call   80491fc <read_line>
 8048a7a:	83 c4 f4             	add    $0xfffffff4,%esp
 8048a7d:	50                   	push   %eax
 8048a7e:	e8 c5 00 00 00       	call   8048b48 <phase_2>
 8048a83:	e8 a4 0a 00 00       	call   804952c <phase_defused>
 8048a88:	83 c4 f4             	add    $0xfffffff4,%esp
 8048a8b:	68 20 97 04 08       	push   $0x8049720
 8048a90:	e8 7b fd ff ff       	call   8048810 <printf@plt>
 8048a95:	83 c4 20             	add    $0x20,%esp
 8048a98:	e8 5f 07 00 00       	call   80491fc <read_line>
 8048a9d:	83 c4 f4             	add    $0xfffffff4,%esp
 8048aa0:	50                   	push   %eax
 8048aa1:	e8 f2 00 00 00       	call   8048b98 <phase_3>
 8048aa6:	e8 81 0a 00 00       	call   804952c <phase_defused>
 8048aab:	83 c4 f4             	add    $0xfffffff4,%esp
 8048aae:	68 3f 97 04 08       	push   $0x804973f
 8048ab3:	e8 58 fd ff ff       	call   8048810 <printf@plt>
 8048ab8:	83 c4 20             	add    $0x20,%esp
 8048abb:	e8 3c 07 00 00       	call   80491fc <read_line>
 8048ac0:	83 c4 f4             	add    $0xfffffff4,%esp
 8048ac3:	50                   	push   %eax
 8048ac4:	e8 17 02 00 00       	call   8048ce0 <phase_4>
 8048ac9:	e8 5e 0a 00 00       	call   804952c <phase_defused>
 8048ace:	83 c4 f4             	add    $0xfffffff4,%esp
 8048ad1:	68 60 97 04 08       	push   $0x8049760
 8048ad6:	e8 35 fd ff ff       	call   8048810 <printf@plt>
 8048adb:	83 c4 20             	add    $0x20,%esp
 8048ade:	e8 19 07 00 00       	call   80491fc <read_line>
 8048ae3:	83 c4 f4             	add    $0xfffffff4,%esp
 8048ae6:	50                   	push   %eax
 8048ae7:	e8 40 02 00 00       	call   8048d2c <phase_5>
 8048aec:	e8 3b 0a 00 00       	call   804952c <phase_defused>
 8048af1:	83 c4 f4             	add    $0xfffffff4,%esp
 8048af4:	68 a0 97 04 08       	push   $0x80497a0
 8048af9:	e8 12 fd ff ff       	call   8048810 <printf@plt>
 8048afe:	83 c4 20             	add    $0x20,%esp
 8048b01:	e8 f6 06 00 00       	call   80491fc <read_line>
 8048b06:	83 c4 f4             	add    $0xfffffff4,%esp
 8048b09:	50                   	push   %eax
 8048b0a:	e8 89 02 00 00       	call   8048d98 <phase_6>
 8048b0f:	e8 18 0a 00 00       	call   804952c <phase_defused>
 8048b14:	31 c0                	xor    %eax,%eax
 8048b16:	8b 5d e8             	mov    -0x18(%ebp),%ebx
 8048b19:	89 ec                	mov    %ebp,%esp
 8048b1b:	5d                   	pop    %ebp
 8048b1c:	c3                   	ret    
 8048b1d:	90                   	nop
 8048b1e:	90                   	nop
 8048b1f:	90                   	nop

08048b20 <phase_1>:
 8048b20:	55                   	push   %ebp
 8048b21:	89 e5                	mov    %esp,%ebp
 8048b23:	83 ec 08             	sub    $0x8,%esp
 8048b26:	8b 45 08             	mov    0x8(%ebp),%eax
 8048b29:	83 c4 f8             	add    $0xfffffff8,%esp
 8048b2c:	68 c0 97 04 08       	push   $0x80497c0
 8048b31:	50                   	push   %eax
 8048b32:	e8 f9 04 00 00       	call   8049030 <strings_not_equal>
 8048b37:	83 c4 10             	add    $0x10,%esp
 8048b3a:	85 c0                	test   %eax,%eax
 8048b3c:	74 05                	je     8048b43 <phase_1+0x23>
 8048b3e:	e8 b9 09 00 00       	call   80494fc <explode_bomb>
 8048b43:	89 ec                	mov    %ebp,%esp
 8048b45:	5d                   	pop    %ebp
 8048b46:	c3                   	ret    
 8048b47:	90                   	nop

08048b48 <phase_2>:
 8048b48:	55                   	push   %ebp
 8048b49:	89 e5                	mov    %esp,%ebp
 8048b4b:	83 ec 20             	sub    $0x20,%esp
 8048b4e:	56                   	push   %esi
 8048b4f:	53                   	push   %ebx
 8048b50:	8b 55 08             	mov    0x8(%ebp),%edx
 8048b53:	83 c4 f8             	add    $0xfffffff8,%esp
 8048b56:	8d 45 e8             	lea    -0x18(%ebp),%eax
 8048b59:	50                   	push   %eax
 8048b5a:	52                   	push   %edx
 8048b5b:	e8 78 04 00 00       	call   8048fd8 <read_six_numbers>
 8048b60:	83 c4 10             	add    $0x10,%esp
 8048b63:	83 7d e8 01          	cmpl   $0x1,-0x18(%ebp)
 8048b67:	74 05                	je     8048b6e <phase_2+0x26>
 8048b69:	e8 8e 09 00 00       	call   80494fc <explode_bomb>
 8048b6e:	bb 01 00 00 00       	mov    $0x1,%ebx
 8048b73:	8d 75 e8             	lea    -0x18(%ebp),%esi
 8048b76:	8d 43 01             	lea    0x1(%ebx),%eax
 8048b79:	0f af 44 9e fc       	imul   -0x4(%esi,%ebx,4),%eax
 8048b7e:	39 04 9e             	cmp    %eax,(%esi,%ebx,4)
 8048b81:	74 05                	je     8048b88 <phase_2+0x40>
 8048b83:	e8 74 09 00 00       	call   80494fc <explode_bomb>
 8048b88:	43                   	inc    %ebx
 8048b89:	83 fb 05             	cmp    $0x5,%ebx
 8048b8c:	7e e8                	jle    8048b76 <phase_2+0x2e>
 8048b8e:	8d 65 d8             	lea    -0x28(%ebp),%esp
 8048b91:	5b                   	pop    %ebx
 8048b92:	5e                   	pop    %esi
 8048b93:	89 ec                	mov    %ebp,%esp
 8048b95:	5d                   	pop    %ebp
 8048b96:	c3                   	ret    
 8048b97:	90                   	nop

08048b98 <phase_3>:
 8048b98:	55                   	push   %ebp
 8048b99:	89 e5                	mov    %esp,%ebp
 8048b9b:	83 ec 14             	sub    $0x14,%esp
 8048b9e:	53                   	push   %ebx
 8048b9f:	8b 55 08             	mov    0x8(%ebp),%edx
 8048ba2:	83 c4 f4             	add    $0xfffffff4,%esp
 8048ba5:	8d 45 fc             	lea    -0x4(%ebp),%eax
 8048ba8:	50                   	push   %eax
 8048ba9:	8d 45 fb             	lea    -0x5(%ebp),%eax
 8048bac:	50                   	push   %eax
 8048bad:	8d 45 f4             	lea    -0xc(%ebp),%eax
 8048bb0:	50                   	push   %eax
 8048bb1:	68 de 97 04 08       	push   $0x80497de
 8048bb6:	52                   	push   %edx
 8048bb7:	e8 a4 fc ff ff       	call   8048860 <sscanf@plt>
 8048bbc:	83 c4 20             	add    $0x20,%esp
 8048bbf:	83 f8 02             	cmp    $0x2,%eax
 8048bc2:	7f 05                	jg     8048bc9 <phase_3+0x31>
 8048bc4:	e8 33 09 00 00       	call   80494fc <explode_bomb>
 8048bc9:	83 7d f4 07          	cmpl   $0x7,-0xc(%ebp)
 8048bcd:	0f 87 b5 00 00 00    	ja     8048c88 <phase_3+0xf0>
 8048bd3:	8b 45 f4             	mov    -0xc(%ebp),%eax
 8048bd6:	ff 24 85 e8 97 04 08 	jmp    *0x80497e8(,%eax,4)
 8048bdd:	8d 76 00             	lea    0x0(%esi),%esi
 8048be0:	b3 71                	mov    $0x71,%bl
 8048be2:	81 7d fc 09 03 00 00 	cmpl   $0x309,-0x4(%ebp)
 8048be9:	0f 84 a0 00 00 00    	je     8048c8f <phase_3+0xf7>
 8048bef:	e8 08 09 00 00       	call   80494fc <explode_bomb>
 8048bf4:	e9 96 00 00 00       	jmp    8048c8f <phase_3+0xf7>
 8048bf9:	8d b4 26 00 00 00 00 	lea    0x0(%esi,%eiz,1),%esi
 8048c00:	b3 62                	mov    $0x62,%bl
 8048c02:	81 7d fc d6 00 00 00 	cmpl   $0xd6,-0x4(%ebp)
 8048c09:	0f 84 80 00 00 00    	je     8048c8f <phase_3+0xf7>
 8048c0f:	e8 e8 08 00 00       	call   80494fc <explode_bomb>
 8048c14:	eb 79                	jmp    8048c8f <phase_3+0xf7>
 8048c16:	b3 62                	mov    $0x62,%bl
 8048c18:	81 7d fc f3 02 00 00 	cmpl   $0x2f3,-0x4(%ebp)
 8048c1f:	74 6e                	je     8048c8f <phase_3+0xf7>
 8048c21:	e8 d6 08 00 00       	call   80494fc <explode_bomb>
 8048c26:	eb 67                	jmp    8048c8f <phase_3+0xf7>
 8048c28:	b3 6b                	mov    $0x6b,%bl
 8048c2a:	81 7d fc fb 00 00 00 	cmpl   $0xfb,-0x4(%ebp)
 8048c31:	74 5c                	je     8048c8f <phase_3+0xf7>
 8048c33:	e8 c4 08 00 00       	call   80494fc <explode_bomb>
 8048c38:	eb 55                	jmp    8048c8f <phase_3+0xf7>
 8048c3a:	8d b6 00 00 00 00    	lea    0x0(%esi),%esi
 8048c40:	b3 6f                	mov    $0x6f,%bl
 8048c42:	81 7d fc a0 00 00 00 	cmpl   $0xa0,-0x4(%ebp)
 8048c49:	74 44                	je     8048c8f <phase_3+0xf7>
 8048c4b:	e8 ac 08 00 00       	call   80494fc <explode_bomb>
 8048c50:	eb 3d                	jmp    8048c8f <phase_3+0xf7>
 8048c52:	b3 74                	mov    $0x74,%bl
 8048c54:	81 7d fc ca 01 00 00 	cmpl   $0x1ca,-0x4(%ebp)
 8048c5b:	74 32                	je     8048c8f <phase_3+0xf7>
 8048c5d:	e8 9a 08 00 00       	call   80494fc <explode_bomb>
 8048c62:	eb 2b                	jmp    8048c8f <phase_3+0xf7>
 8048c64:	b3 76                	mov    $0x76,%bl
 8048c66:	81 7d fc 0c 03 00 00 	cmpl   $0x30c,-0x4(%ebp)
 8048c6d:	74 20                	je     8048c8f <phase_3+0xf7>
 8048c6f:	e8 88 08 00 00       	call   80494fc <explode_bomb>
 8048c74:	eb 19                	jmp    8048c8f <phase_3+0xf7>
 8048c76:	b3 62                	mov    $0x62,%bl
 8048c78:	81 7d fc 0c 02 00 00 	cmpl   $0x20c,-0x4(%ebp)
 8048c7f:	74 0e                	je     8048c8f <phase_3+0xf7>
 8048c81:	e8 76 08 00 00       	call   80494fc <explode_bomb>
 8048c86:	eb 07                	jmp    8048c8f <phase_3+0xf7>
 8048c88:	b3 78                	mov    $0x78,%bl
 8048c8a:	e8 6d 08 00 00       	call   80494fc <explode_bomb>
 8048c8f:	3a 5d fb             	cmp    -0x5(%ebp),%bl
 8048c92:	74 05                	je     8048c99 <phase_3+0x101>
 8048c94:	e8 63 08 00 00       	call   80494fc <explode_bomb>
 8048c99:	8b 5d e8             	mov    -0x18(%ebp),%ebx
 8048c9c:	89 ec                	mov    %ebp,%esp
 8048c9e:	5d                   	pop    %ebp
 8048c9f:	c3                   	ret    

08048ca0 <func4>:
 8048ca0:	55                   	push   %ebp
 8048ca1:	89 e5                	mov    %esp,%ebp
 8048ca3:	83 ec 10             	sub    $0x10,%esp
 8048ca6:	56                   	push   %esi
 8048ca7:	53                   	push   %ebx
 8048ca8:	8b 5d 08             	mov    0x8(%ebp),%ebx
 8048cab:	83 fb 01             	cmp    $0x1,%ebx
 8048cae:	7e 20                	jle    8048cd0 <func4+0x30>
 8048cb0:	83 c4 f4             	add    $0xfffffff4,%esp
 8048cb3:	8d 43 ff             	lea    -0x1(%ebx),%eax
 8048cb6:	50                   	push   %eax
 8048cb7:	e8 e4 ff ff ff       	call   8048ca0 <func4>
 8048cbc:	89 c6                	mov    %eax,%esi
 8048cbe:	83 c4 f4             	add    $0xfffffff4,%esp
 8048cc1:	8d 43 fe             	lea    -0x2(%ebx),%eax
 8048cc4:	50                   	push   %eax
 8048cc5:	e8 d6 ff ff ff       	call   8048ca0 <func4>
 8048cca:	01 f0                	add    %esi,%eax
 8048ccc:	eb 07                	jmp    8048cd5 <func4+0x35>
 8048cce:	89 f6                	mov    %esi,%esi
 8048cd0:	b8 01 00 00 00       	mov    $0x1,%eax
 8048cd5:	8d 65 e8             	lea    -0x18(%ebp),%esp
 8048cd8:	5b                   	pop    %ebx
 8048cd9:	5e                   	pop    %esi
 8048cda:	89 ec                	mov    %ebp,%esp
 8048cdc:	5d                   	pop    %ebp
 8048cdd:	c3                   	ret    
 8048cde:	89 f6                	mov    %esi,%esi

08048ce0 <phase_4>:
 8048ce0:	55                   	push   %ebp
 8048ce1:	89 e5                	mov    %esp,%ebp
 8048ce3:	83 ec 18             	sub    $0x18,%esp
 8048ce6:	8b 55 08             	mov    0x8(%ebp),%edx
 8048ce9:	83 c4 fc             	add    $0xfffffffc,%esp
 8048cec:	8d 45 fc             	lea    -0x4(%ebp),%eax
 8048cef:	50                   	push   %eax
 8048cf0:	68 08 98 04 08       	push   $0x8049808
 8048cf5:	52                   	push   %edx
 8048cf6:	e8 65 fb ff ff       	call   8048860 <sscanf@plt>
 8048cfb:	83 c4 10             	add    $0x10,%esp
 8048cfe:	83 f8 01             	cmp    $0x1,%eax
 8048d01:	75 06                	jne    8048d09 <phase_4+0x29>
 8048d03:	83 7d fc 00          	cmpl   $0x0,-0x4(%ebp)
 8048d07:	7f 05                	jg     8048d0e <phase_4+0x2e>
 8048d09:	e8 ee 07 00 00       	call   80494fc <explode_bomb>
 8048d0e:	83 c4 f4             	add    $0xfffffff4,%esp
 8048d11:	8b 45 fc             	mov    -0x4(%ebp),%eax
 8048d14:	50                   	push   %eax
 8048d15:	e8 86 ff ff ff       	call   8048ca0 <func4>
 8048d1a:	83 c4 10             	add    $0x10,%esp
 8048d1d:	83 f8 37             	cmp    $0x37,%eax
 8048d20:	74 05                	je     8048d27 <phase_4+0x47>
 8048d22:	e8 d5 07 00 00       	call   80494fc <explode_bomb>
 8048d27:	89 ec                	mov    %ebp,%esp
 8048d29:	5d                   	pop    %ebp
 8048d2a:	c3                   	ret    
 8048d2b:	90                   	nop

08048d2c <phase_5>:
 8048d2c:	55                   	push   %ebp
 8048d2d:	89 e5                	mov    %esp,%ebp
 8048d2f:	83 ec 10             	sub    $0x10,%esp
 8048d32:	56                   	push   %esi
 8048d33:	53                   	push   %ebx
 8048d34:	8b 5d 08             	mov    0x8(%ebp),%ebx
 8048d37:	83 c4 f4             	add    $0xfffffff4,%esp
 8048d3a:	53                   	push   %ebx
 8048d3b:	e8 d8 02 00 00       	call   8049018 <string_length>
 8048d40:	83 c4 10             	add    $0x10,%esp
 8048d43:	83 f8 06             	cmp    $0x6,%eax
 8048d46:	74 05                	je     8048d4d <phase_5+0x21>
 8048d48:	e8 af 07 00 00       	call   80494fc <explode_bomb>
 8048d4d:	31 d2                	xor    %edx,%edx
 8048d4f:	8d 4d f8             	lea    -0x8(%ebp),%ecx
 8048d52:	be 20 b2 04 08       	mov    $0x804b220,%esi
 8048d57:	8a 04 1a             	mov    (%edx,%ebx,1),%al
 8048d5a:	24 0f                	and    $0xf,%al
 8048d5c:	0f be c0             	movsbl %al,%eax
 8048d5f:	8a 04 30             	mov    (%eax,%esi,1),%al
 8048d62:	88 04 0a             	mov    %al,(%edx,%ecx,1)
 8048d65:	42                   	inc    %edx
 8048d66:	83 fa 05             	cmp    $0x5,%edx
 8048d69:	7e ec                	jle    8048d57 <phase_5+0x2b>
 8048d6b:	c6 45 fe 00          	movb   $0x0,-0x2(%ebp)
 8048d6f:	83 c4 f8             	add    $0xfffffff8,%esp
 8048d72:	68 0b 98 04 08       	push   $0x804980b
 8048d77:	8d 45 f8             	lea    -0x8(%ebp),%eax
 8048d7a:	50                   	push   %eax
 8048d7b:	e8 b0 02 00 00       	call   8049030 <strings_not_equal>
 8048d80:	83 c4 10             	add    $0x10,%esp
 8048d83:	85 c0                	test   %eax,%eax
 8048d85:	74 05                	je     8048d8c <phase_5+0x60>
 8048d87:	e8 70 07 00 00       	call   80494fc <explode_bomb>
 8048d8c:	8d 65 e8             	lea    -0x18(%ebp),%esp
 8048d8f:	5b                   	pop    %ebx
 8048d90:	5e                   	pop    %esi
 8048d91:	89 ec                	mov    %ebp,%esp
 8048d93:	5d                   	pop    %ebp
 8048d94:	c3                   	ret    
 8048d95:	8d 76 00             	lea    0x0(%esi),%esi

08048d98 <phase_6>:
 8048d98:	55                   	push   %ebp
 8048d99:	89 e5                	mov    %esp,%ebp
 8048d9b:	83 ec 4c             	sub    $0x4c,%esp
 8048d9e:	57                   	push   %edi
 8048d9f:	56                   	push   %esi
 8048da0:	53                   	push   %ebx
 8048da1:	8b 55 08             	mov    0x8(%ebp),%edx
 8048da4:	c7 45 cc 6c b2 04 08 	movl   $0x804b26c,-0x34(%ebp)
 8048dab:	83 c4 f8             	add    $0xfffffff8,%esp
 8048dae:	8d 45 e8             	lea    -0x18(%ebp),%eax
 8048db1:	50                   	push   %eax
 8048db2:	52                   	push   %edx
 8048db3:	e8 20 02 00 00       	call   8048fd8 <read_six_numbers>
 8048db8:	31 ff                	xor    %edi,%edi
 8048dba:	83 c4 10             	add    $0x10,%esp
 8048dbd:	8d 76 00             	lea    0x0(%esi),%esi
 8048dc0:	8d 45 e8             	lea    -0x18(%ebp),%eax
 8048dc3:	8b 04 b8             	mov    (%eax,%edi,4),%eax
 8048dc6:	48                   	dec    %eax
 8048dc7:	83 f8 05             	cmp    $0x5,%eax
 8048dca:	76 05                	jbe    8048dd1 <phase_6+0x39>
 8048dcc:	e8 2b 07 00 00       	call   80494fc <explode_bomb>
 8048dd1:	8d 5f 01             	lea    0x1(%edi),%ebx
 8048dd4:	83 fb 05             	cmp    $0x5,%ebx
 8048dd7:	7f 23                	jg     8048dfc <phase_6+0x64>
 8048dd9:	8d 04 bd 00 00 00 00 	lea    0x0(,%edi,4),%eax
 8048de0:	89 45 c8             	mov    %eax,-0x38(%ebp)
 8048de3:	8d 75 e8             	lea    -0x18(%ebp),%esi
 8048de6:	8b 55 c8             	mov    -0x38(%ebp),%edx
 8048de9:	8b 04 32             	mov    (%edx,%esi,1),%eax
 8048dec:	3b 04 9e             	cmp    (%esi,%ebx,4),%eax
 8048def:	75 05                	jne    8048df6 <phase_6+0x5e>
 8048df1:	e8 06 07 00 00       	call   80494fc <explode_bomb>
 8048df6:	43                   	inc    %ebx
 8048df7:	83 fb 05             	cmp    $0x5,%ebx
 8048dfa:	7e ea                	jle    8048de6 <phase_6+0x4e>
 8048dfc:	47                   	inc    %edi
 8048dfd:	83 ff 05             	cmp    $0x5,%edi
 8048e00:	7e be                	jle    8048dc0 <phase_6+0x28>
 8048e02:	31 ff                	xor    %edi,%edi
 8048e04:	8d 4d e8             	lea    -0x18(%ebp),%ecx
 8048e07:	8d 45 d0             	lea    -0x30(%ebp),%eax
 8048e0a:	89 45 c4             	mov    %eax,-0x3c(%ebp)
 8048e0d:	8d 76 00             	lea    0x0(%esi),%esi
 8048e10:	8b 75 cc             	mov    -0x34(%ebp),%esi
 8048e13:	bb 01 00 00 00       	mov    $0x1,%ebx
 8048e18:	8d 04 bd 00 00 00 00 	lea    0x0(,%edi,4),%eax
 8048e1f:	89 c2                	mov    %eax,%edx
 8048e21:	3b 1c 08             	cmp    (%eax,%ecx,1),%ebx
 8048e24:	7d 12                	jge    8048e38 <phase_6+0xa0>
 8048e26:	8b 04 0a             	mov    (%edx,%ecx,1),%eax
 8048e29:	8d b4 26 00 00 00 00 	lea    0x0(%esi,%eiz,1),%esi
 8048e30:	8b 76 08             	mov    0x8(%esi),%esi
 8048e33:	43                   	inc    %ebx
 8048e34:	39 c3                	cmp    %eax,%ebx
 8048e36:	7c f8                	jl     8048e30 <phase_6+0x98>
 8048e38:	8b 55 c4             	mov    -0x3c(%ebp),%edx
 8048e3b:	89 34 ba             	mov    %esi,(%edx,%edi,4)
 8048e3e:	47                   	inc    %edi
 8048e3f:	83 ff 05             	cmp    $0x5,%edi
 8048e42:	7e cc                	jle    8048e10 <phase_6+0x78>
 8048e44:	8b 75 d0             	mov    -0x30(%ebp),%esi
 8048e47:	89 75 cc             	mov    %esi,-0x34(%ebp)
 8048e4a:	bf 01 00 00 00       	mov    $0x1,%edi
 8048e4f:	8d 55 d0             	lea    -0x30(%ebp),%edx
 8048e52:	8b 04 ba             	mov    (%edx,%edi,4),%eax
 8048e55:	89 46 08             	mov    %eax,0x8(%esi)
 8048e58:	89 c6                	mov    %eax,%esi
 8048e5a:	47                   	inc    %edi
 8048e5b:	83 ff 05             	cmp    $0x5,%edi
 8048e5e:	7e f2                	jle    8048e52 <phase_6+0xba>
 8048e60:	c7 46 08 00 00 00 00 	movl   $0x0,0x8(%esi)
 8048e67:	8b 75 cc             	mov    -0x34(%ebp),%esi
 8048e6a:	31 ff                	xor    %edi,%edi
 8048e6c:	8d 74 26 00          	lea    0x0(%esi,%eiz,1),%esi
 8048e70:	8b 56 08             	mov    0x8(%esi),%edx
 8048e73:	8b 06                	mov    (%esi),%eax
 8048e75:	3b 02                	cmp    (%edx),%eax
 8048e77:	7d 05                	jge    8048e7e <phase_6+0xe6>
 8048e79:	e8 7e 06 00 00       	call   80494fc <explode_bomb>
 8048e7e:	8b 76 08             	mov    0x8(%esi),%esi
 8048e81:	47                   	inc    %edi
 8048e82:	83 ff 04             	cmp    $0x4,%edi
 8048e85:	7e e9                	jle    8048e70 <phase_6+0xd8>
 8048e87:	8d 65 a8             	lea    -0x58(%ebp),%esp
 8048e8a:	5b                   	pop    %ebx
 8048e8b:	5e                   	pop    %esi
 8048e8c:	5f                   	pop    %edi
 8048e8d:	89 ec                	mov    %ebp,%esp
 8048e8f:	5d                   	pop    %ebp
 8048e90:	c3                   	ret    
 8048e91:	8d 76 00             	lea    0x0(%esi),%esi

08048e94 <fun7>:
 8048e94:	55                   	push   %ebp
 8048e95:	89 e5                	mov    %esp,%ebp
 8048e97:	83 ec 08             	sub    $0x8,%esp
 8048e9a:	8b 55 08             	mov    0x8(%ebp),%edx
 8048e9d:	8b 45 0c             	mov    0xc(%ebp),%eax
 8048ea0:	85 d2                	test   %edx,%edx
 8048ea2:	75 0c                	jne    8048eb0 <fun7+0x1c>
 8048ea4:	b8 ff ff ff ff       	mov    $0xffffffff,%eax
 8048ea9:	eb 37                	jmp    8048ee2 <fun7+0x4e>
 8048eab:	90                   	nop
 8048eac:	8d 74 26 00          	lea    0x0(%esi,%eiz,1),%esi
 8048eb0:	3b 02                	cmp    (%edx),%eax
 8048eb2:	7d 11                	jge    8048ec5 <fun7+0x31>
 8048eb4:	83 c4 f8             	add    $0xfffffff8,%esp
 8048eb7:	50                   	push   %eax
 8048eb8:	8b 42 04             	mov    0x4(%edx),%eax
 8048ebb:	50                   	push   %eax
 8048ebc:	e8 d3 ff ff ff       	call   8048e94 <fun7>
 8048ec1:	01 c0                	add    %eax,%eax
 8048ec3:	eb 1d                	jmp    8048ee2 <fun7+0x4e>
 8048ec5:	3b 02                	cmp    (%edx),%eax
 8048ec7:	74 17                	je     8048ee0 <fun7+0x4c>
 8048ec9:	83 c4 f8             	add    $0xfffffff8,%esp
 8048ecc:	50                   	push   %eax
 8048ecd:	8b 42 08             	mov    0x8(%edx),%eax
 8048ed0:	50                   	push   %eax
 8048ed1:	e8 be ff ff ff       	call   8048e94 <fun7>
 8048ed6:	01 c0                	add    %eax,%eax
 8048ed8:	40                   	inc    %eax
 8048ed9:	eb 07                	jmp    8048ee2 <fun7+0x4e>
 8048edb:	90                   	nop
 8048edc:	8d 74 26 00          	lea    0x0(%esi,%eiz,1),%esi
 8048ee0:	31 c0                	xor    %eax,%eax
 8048ee2:	89 ec                	mov    %ebp,%esp
 8048ee4:	5d                   	pop    %ebp
 8048ee5:	c3                   	ret    
 8048ee6:	89 f6                	mov    %esi,%esi

08048ee8 <secret_phase>:
 8048ee8:	55                   	push   %ebp
 8048ee9:	89 e5                	mov    %esp,%ebp
 8048eeb:	83 ec 14             	sub    $0x14,%esp
 8048eee:	53                   	push   %ebx
 8048eef:	e8 08 03 00 00       	call   80491fc <read_line>
 8048ef4:	6a 00                	push   $0x0
 8048ef6:	6a 0a                	push   $0xa
 8048ef8:	6a 00                	push   $0x0
 8048efa:	50                   	push   %eax
 8048efb:	e8 f0 f8 ff ff       	call   80487f0 <__strtol_internal@plt>
 8048f00:	83 c4 10             	add    $0x10,%esp
 8048f03:	89 c3                	mov    %eax,%ebx
 8048f05:	8d 43 ff             	lea    -0x1(%ebx),%eax
 8048f08:	3d e8 03 00 00       	cmp    $0x3e8,%eax
 8048f0d:	76 05                	jbe    8048f14 <secret_phase+0x2c>
 8048f0f:	e8 e8 05 00 00       	call   80494fc <explode_bomb>
 8048f14:	83 c4 f8             	add    $0xfffffff8,%esp
 8048f17:	53                   	push   %ebx
 8048f18:	68 20 b3 04 08       	push   $0x804b320
 8048f1d:	e8 72 ff ff ff       	call   8048e94 <fun7>
 8048f22:	83 c4 10             	add    $0x10,%esp
 8048f25:	83 f8 07             	cmp    $0x7,%eax
 8048f28:	74 05                	je     8048f2f <secret_phase+0x47>
 8048f2a:	e8 cd 05 00 00       	call   80494fc <explode_bomb>
 8048f2f:	83 c4 f4             	add    $0xfffffff4,%esp
 8048f32:	68 20 98 04 08       	push   $0x8049820
 8048f37:	e8 d4 f8 ff ff       	call   8048810 <printf@plt>
 8048f3c:	e8 eb 05 00 00       	call   804952c <phase_defused>
 8048f41:	8b 5d e8             	mov    -0x18(%ebp),%ebx
 8048f44:	89 ec                	mov    %ebp,%esp
 8048f46:	5d                   	pop    %ebp
 8048f47:	c3                   	ret    
 8048f48:	90                   	nop
 8048f49:	90                   	nop
 8048f4a:	90                   	nop
 8048f4b:	90                   	nop
 8048f4c:	90                   	nop
 8048f4d:	90                   	nop
 8048f4e:	90                   	nop
 8048f4f:	90                   	nop

08048f50 <sig_handler>:
 8048f50:	55                   	push   %ebp
 8048f51:	89 e5                	mov    %esp,%ebp
 8048f53:	83 ec 08             	sub    $0x8,%esp
 8048f56:	83 c4 f4             	add    $0xfffffff4,%esp
 8048f59:	68 c0 9a 04 08       	push   $0x8049ac0
 8048f5e:	e8 ad f8 ff ff       	call   8048810 <printf@plt>
 8048f63:	83 c4 f4             	add    $0xfffffff4,%esp
 8048f66:	6a 03                	push   $0x3
 8048f68:	e8 73 f8 ff ff       	call   80487e0 <sleep@plt>
 8048f6d:	83 c4 20             	add    $0x20,%esp
 8048f70:	83 c4 f4             	add    $0xfffffff4,%esp
 8048f73:	68 f9 9a 04 08       	push   $0x8049af9
 8048f78:	e8 93 f8 ff ff       	call   8048810 <printf@plt>
 8048f7d:	83 c4 f4             	add    $0xfffffff4,%esp
 8048f80:	a1 40 b6 04 08       	mov    0x804b640,%eax
 8048f85:	50                   	push   %eax
 8048f86:	e8 f5 f7 ff ff       	call   8048780 <fflush@plt>
 8048f8b:	83 c4 20             	add    $0x20,%esp
 8048f8e:	83 c4 f4             	add    $0xfffffff4,%esp
 8048f91:	6a 01                	push   $0x1
 8048f93:	e8 48 f8 ff ff       	call   80487e0 <sleep@plt>
 8048f98:	83 c4 f4             	add    $0xfffffff4,%esp
 8048f9b:	68 01 9b 04 08       	push   $0x8049b01
 8048fa0:	e8 6b f8 ff ff       	call   8048810 <printf@plt>
 8048fa5:	83 c4 20             	add    $0x20,%esp
 8048fa8:	83 c4 f4             	add    $0xfffffff4,%esp
 8048fab:	6a 10                	push   $0x10
 8048fad:	e8 9e f8 ff ff       	call   8048850 <exit@plt>
 8048fb2:	89 f6                	mov    %esi,%esi

08048fb4 <invalid_phase>:
 8048fb4:	55                   	push   %ebp
 8048fb5:	89 e5                	mov    %esp,%ebp
 8048fb7:	83 ec 08             	sub    $0x8,%esp
 8048fba:	8b 45 08             	mov    0x8(%ebp),%eax
 8048fbd:	83 c4 f8             	add    $0xfffffff8,%esp
 8048fc0:	50                   	push   %eax
 8048fc1:	68 0a 9b 04 08       	push   $0x8049b0a
 8048fc6:	e8 45 f8 ff ff       	call   8048810 <printf@plt>
 8048fcb:	83 c4 f4             	add    $0xfffffff4,%esp
 8048fce:	6a 08                	push   $0x8
 8048fd0:	e8 7b f8 ff ff       	call   8048850 <exit@plt>
 8048fd5:	8d 76 00             	lea    0x0(%esi),%esi

08048fd8 <read_six_numbers>:
 8048fd8:	55                   	push   %ebp
 8048fd9:	89 e5                	mov    %esp,%ebp
 8048fdb:	83 ec 08             	sub    $0x8,%esp
 8048fde:	8b 4d 08             	mov    0x8(%ebp),%ecx
 8048fe1:	8b 55 0c             	mov    0xc(%ebp),%edx
 8048fe4:	8d 42 14             	lea    0x14(%edx),%eax
 8048fe7:	50                   	push   %eax
 8048fe8:	8d 42 10             	lea    0x10(%edx),%eax
 8048feb:	50                   	push   %eax
 8048fec:	8d 42 0c             	lea    0xc(%edx),%eax
 8048fef:	50                   	push   %eax
 8048ff0:	8d 42 08             	lea    0x8(%edx),%eax
 8048ff3:	50                   	push   %eax
 8048ff4:	8d 42 04             	lea    0x4(%edx),%eax
 8048ff7:	50                   	push   %eax
 8048ff8:	52                   	push   %edx
 8048ff9:	68 1b 9b 04 08       	push   $0x8049b1b
 8048ffe:	51                   	push   %ecx
 8048fff:	e8 5c f8 ff ff       	call   8048860 <sscanf@plt>
 8049004:	83 c4 20             	add    $0x20,%esp
 8049007:	83 f8 05             	cmp    $0x5,%eax
 804900a:	7f 05                	jg     8049011 <read_six_numbers+0x39>
 804900c:	e8 eb 04 00 00       	call   80494fc <explode_bomb>
 8049011:	89 ec                	mov    %ebp,%esp
 8049013:	5d                   	pop    %ebp
 8049014:	c3                   	ret    
 8049015:	8d 76 00             	lea    0x0(%esi),%esi

08049018 <string_length>:
 8049018:	55                   	push   %ebp
 8049019:	89 e5                	mov    %esp,%ebp
 804901b:	8b 55 08             	mov    0x8(%ebp),%edx
 804901e:	31 c0                	xor    %eax,%eax
 8049020:	80 3a 00             	cmpb   $0x0,(%edx)
 8049023:	74 07                	je     804902c <string_length+0x14>
 8049025:	42                   	inc    %edx
 8049026:	40                   	inc    %eax
 8049027:	80 3a 00             	cmpb   $0x0,(%edx)
 804902a:	75 f9                	jne    8049025 <string_length+0xd>
 804902c:	89 ec                	mov    %ebp,%esp
 804902e:	5d                   	pop    %ebp
 804902f:	c3                   	ret    

08049030 <strings_not_equal>:
 8049030:	55                   	push   %ebp
 8049031:	89 e5                	mov    %esp,%ebp
 8049033:	83 ec 0c             	sub    $0xc,%esp
 8049036:	57                   	push   %edi
 8049037:	56                   	push   %esi
 8049038:	53                   	push   %ebx
 8049039:	8b 75 08             	mov    0x8(%ebp),%esi
 804903c:	8b 7d 0c             	mov    0xc(%ebp),%edi
 804903f:	83 c4 f4             	add    $0xfffffff4,%esp
 8049042:	56                   	push   %esi
 8049043:	e8 d0 ff ff ff       	call   8049018 <string_length>
 8049048:	89 c3                	mov    %eax,%ebx
 804904a:	83 c4 f4             	add    $0xfffffff4,%esp
 804904d:	57                   	push   %edi
 804904e:	e8 c5 ff ff ff       	call   8049018 <string_length>
 8049053:	39 c3                	cmp    %eax,%ebx
 8049055:	74 09                	je     8049060 <strings_not_equal+0x30>
 8049057:	b8 01 00 00 00       	mov    $0x1,%eax
 804905c:	eb 21                	jmp    804907f <strings_not_equal+0x4f>
 804905e:	89 f6                	mov    %esi,%esi
 8049060:	89 f2                	mov    %esi,%edx
 8049062:	89 f9                	mov    %edi,%ecx
 8049064:	80 3a 00             	cmpb   $0x0,(%edx)
 8049067:	74 14                	je     804907d <strings_not_equal+0x4d>
 8049069:	8d b4 26 00 00 00 00 	lea    0x0(%esi,%eiz,1),%esi
 8049070:	8a 02                	mov    (%edx),%al
 8049072:	3a 01                	cmp    (%ecx),%al
 8049074:	75 e1                	jne    8049057 <strings_not_equal+0x27>
 8049076:	42                   	inc    %edx
 8049077:	41                   	inc    %ecx
 8049078:	80 3a 00             	cmpb   $0x0,(%edx)
 804907b:	75 f3                	jne    8049070 <strings_not_equal+0x40>
 804907d:	31 c0                	xor    %eax,%eax
 804907f:	8d 65 e8             	lea    -0x18(%ebp),%esp
 8049082:	5b                   	pop    %ebx
 8049083:	5e                   	pop    %esi
 8049084:	5f                   	pop    %edi
 8049085:	89 ec                	mov    %ebp,%esp
 8049087:	5d                   	pop    %ebp
 8049088:	c3                   	ret    
 8049089:	8d 76 00             	lea    0x0(%esi),%esi

0804908c <open_clientfd>:
 804908c:	55                   	push   %ebp
 804908d:	89 e5                	mov    %esp,%ebp
 804908f:	83 ec 20             	sub    $0x20,%esp
 8049092:	56                   	push   %esi
 8049093:	53                   	push   %ebx
 8049094:	83 c4 fc             	add    $0xfffffffc,%esp
 8049097:	6a 00                	push   $0x0
 8049099:	6a 01                	push   $0x1
 804909b:	6a 02                	push   $0x2
 804909d:	e8 0e f8 ff ff       	call   80488b0 <socket@plt>
 80490a2:	89 c6                	mov    %eax,%esi
 80490a4:	83 c4 10             	add    $0x10,%esp
 80490a7:	85 f6                	test   %esi,%esi
 80490a9:	7d 17                	jge    80490c2 <open_clientfd+0x36>
 80490ab:	83 c4 f4             	add    $0xfffffff4,%esp
 80490ae:	68 2d 9b 04 08       	push   $0x8049b2d
 80490b3:	e8 58 f7 ff ff       	call   8048810 <printf@plt>
 80490b8:	83 c4 f4             	add    $0xfffffff4,%esp
 80490bb:	6a 08                	push   $0x8
 80490bd:	e8 8e f7 ff ff       	call   8048850 <exit@plt>
 80490c2:	83 c4 f4             	add    $0xfffffff4,%esp
 80490c5:	8b 45 08             	mov    0x8(%ebp),%eax
 80490c8:	50                   	push   %eax
 80490c9:	e8 62 f7 ff ff       	call   8048830 <gethostbyname@plt>
 80490ce:	89 c3                	mov    %eax,%ebx
 80490d0:	83 c4 10             	add    $0x10,%esp
 80490d3:	85 db                	test   %ebx,%ebx
 80490d5:	75 19                	jne    80490f0 <open_clientfd+0x64>
 80490d7:	83 c4 f4             	add    $0xfffffff4,%esp
 80490da:	68 3c 9b 04 08       	push   $0x8049b3c
 80490df:	e8 2c f7 ff ff       	call   8048810 <printf@plt>
 80490e4:	83 c4 f4             	add    $0xfffffff4,%esp
 80490e7:	6a 08                	push   $0x8
 80490e9:	e8 62 f7 ff ff       	call   8048850 <exit@plt>
 80490ee:	89 f6                	mov    %esi,%esi
 80490f0:	83 c4 f8             	add    $0xfffffff8,%esp
 80490f3:	6a 10                	push   $0x10
 80490f5:	8d 45 f0             	lea    -0x10(%ebp),%eax
 80490f8:	50                   	push   %eax
 80490f9:	e8 42 f7 ff ff       	call   8048840 <bzero@plt>
 80490fe:	66 c7 45 f0 02 00    	movw   $0x2,-0x10(%ebp)
 8049104:	83 c4 fc             	add    $0xfffffffc,%esp
 8049107:	8b 43 0c             	mov    0xc(%ebx),%eax
 804910a:	50                   	push   %eax
 804910b:	8d 45 f4             	lea    -0xc(%ebp),%eax
 804910e:	50                   	push   %eax
 804910f:	8b 43 10             	mov    0x10(%ebx),%eax
 8049112:	8b 00                	mov    (%eax),%eax
 8049114:	50                   	push   %eax
 8049115:	e8 76 f6 ff ff       	call   8048790 <bcopy@plt>
 804911a:	83 c4 20             	add    $0x20,%esp
 804911d:	8b 45 0c             	mov    0xc(%ebp),%eax
 8049120:	66 c1 c8 08          	ror    $0x8,%ax
 8049124:	66 89 45 f2          	mov    %ax,-0xe(%ebp)
 8049128:	83 c4 fc             	add    $0xfffffffc,%esp
 804912b:	6a 10                	push   $0x10
 804912d:	8d 45 f0             	lea    -0x10(%ebp),%eax
 8049130:	50                   	push   %eax
 8049131:	56                   	push   %esi
 8049132:	e8 39 f7 ff ff       	call   8048870 <connect@plt>
 8049137:	83 c4 10             	add    $0x10,%esp
 804913a:	85 c0                	test   %eax,%eax
 804913c:	7d 17                	jge    8049155 <open_clientfd+0xc9>
 804913e:	83 c4 f4             	add    $0xfffffff4,%esp
 8049141:	68 4b 9b 04 08       	push   $0x8049b4b
 8049146:	e8 c5 f6 ff ff       	call   8048810 <printf@plt>
 804914b:	83 c4 f4             	add    $0xfffffff4,%esp
 804914e:	6a 08                	push   $0x8
 8049150:	e8 fb f6 ff ff       	call   8048850 <exit@plt>
 8049155:	89 f0                	mov    %esi,%eax
 8049157:	8d 65 d8             	lea    -0x28(%ebp),%esp
 804915a:	5b                   	pop    %ebx
 804915b:	5e                   	pop    %esi
 804915c:	89 ec                	mov    %ebp,%esp
 804915e:	5d                   	pop    %ebp
 804915f:	c3                   	ret    

08049160 <initialize_bomb>:
 8049160:	55                   	push   %ebp
 8049161:	89 e5                	mov    %esp,%ebp
 8049163:	83 ec 08             	sub    $0x8,%esp
 8049166:	83 c4 f8             	add    $0xfffffff8,%esp
 8049169:	68 50 8f 04 08       	push   $0x8048f50
 804916e:	6a 02                	push   $0x2
 8049170:	e8 fb f5 ff ff       	call   8048770 <signal@plt>
 8049175:	89 ec                	mov    %ebp,%esp
 8049177:	5d                   	pop    %ebp
 8049178:	c3                   	ret    
 8049179:	8d 76 00             	lea    0x0(%esi),%esi

0804917c <blank_line>:
 804917c:	55                   	push   %ebp
 804917d:	89 e5                	mov    %esp,%ebp
 804917f:	8b 55 08             	mov    0x8(%ebp),%edx
 8049182:	80 3a 00             	cmpb   $0x0,(%edx)
 8049185:	74 1e                	je     80491a5 <blank_line+0x29>
 8049187:	8b 0d 44 b6 04 08    	mov    0x804b644,%ecx
 804918d:	8d 76 00             	lea    0x0(%esi),%esi
 8049190:	0f be 02             	movsbl (%edx),%eax
 8049193:	42                   	inc    %edx
 8049194:	f6 44 41 01 20       	testb  $0x20,0x1(%ecx,%eax,2)
 8049199:	75 05                	jne    80491a0 <blank_line+0x24>
 804919b:	31 c0                	xor    %eax,%eax
 804919d:	eb 0b                	jmp    80491aa <blank_line+0x2e>
 804919f:	90                   	nop
 80491a0:	80 3a 00             	cmpb   $0x0,(%edx)
 80491a3:	75 eb                	jne    8049190 <blank_line+0x14>
 80491a5:	b8 01 00 00 00       	mov    $0x1,%eax
 80491aa:	89 ec                	mov    %ebp,%esp
 80491ac:	5d                   	pop    %ebp
 80491ad:	c3                   	ret    
 80491ae:	89 f6                	mov    %esi,%esi

080491b0 <skip>:
 80491b0:	55                   	push   %ebp
 80491b1:	89 e5                	mov    %esp,%ebp
 80491b3:	83 ec 14             	sub    $0x14,%esp
 80491b6:	53                   	push   %ebx
 80491b7:	83 c4 fc             	add    $0xfffffffc,%esp
 80491ba:	a1 64 b6 04 08       	mov    0x804b664,%eax
 80491bf:	50                   	push   %eax
 80491c0:	6a 50                	push   $0x50
 80491c2:	a1 80 b4 04 08       	mov    0x804b480,%eax
 80491c7:	8d 04 80             	lea    (%eax,%eax,4),%eax
 80491ca:	c1 e0 04             	shl    $0x4,%eax
 80491cd:	05 80 b6 04 08       	add    $0x804b680,%eax
 80491d2:	50                   	push   %eax
 80491d3:	e8 f8 f5 ff ff       	call   80487d0 <fgets@plt>
 80491d8:	89 c3                	mov    %eax,%ebx
 80491da:	83 c4 10             	add    $0x10,%esp
 80491dd:	85 db                	test   %ebx,%ebx
 80491df:	74 10                	je     80491f1 <skip+0x41>
 80491e1:	83 c4 f4             	add    $0xfffffff4,%esp
 80491e4:	53                   	push   %ebx
 80491e5:	e8 92 ff ff ff       	call   804917c <blank_line>
 80491ea:	83 c4 10             	add    $0x10,%esp
 80491ed:	85 c0                	test   %eax,%eax
 80491ef:	75 c6                	jne    80491b7 <skip+0x7>
 80491f1:	89 d8                	mov    %ebx,%eax
 80491f3:	8b 5d e8             	mov    -0x18(%ebp),%ebx
 80491f6:	89 ec                	mov    %ebp,%esp
 80491f8:	5d                   	pop    %ebp
 80491f9:	c3                   	ret    
 80491fa:	89 f6                	mov    %esi,%esi

080491fc <read_line>:
 80491fc:	55                   	push   %ebp
 80491fd:	89 e5                	mov    %esp,%ebp
 80491ff:	83 ec 14             	sub    $0x14,%esp
 8049202:	57                   	push   %edi
 8049203:	e8 a8 ff ff ff       	call   80491b0 <skip>
 8049208:	85 c0                	test   %eax,%eax
 804920a:	75 53                	jne    804925f <read_line+0x63>
 804920c:	a1 64 b6 04 08       	mov    0x804b664,%eax
 8049211:	3b 05 48 b6 04 08    	cmp    0x804b648,%eax
 8049217:	74 31                	je     804924a <read_line+0x4e>
 8049219:	83 c4 f4             	add    $0xfffffff4,%esp
 804921c:	68 7f 9b 04 08       	push   $0x8049b7f
 8049221:	e8 3a f5 ff ff       	call   8048760 <getenv@plt>
 8049226:	83 c4 10             	add    $0x10,%esp
 8049229:	85 c0                	test   %eax,%eax
 804922b:	74 0a                	je     8049237 <read_line+0x3b>
 804922d:	83 c4 f4             	add    $0xfffffff4,%esp
 8049230:	6a 00                	push   $0x0
 8049232:	e8 19 f6 ff ff       	call   8048850 <exit@plt>
 8049237:	a1 48 b6 04 08       	mov    0x804b648,%eax
 804923c:	a3 64 b6 04 08       	mov    %eax,0x804b664
 8049241:	e8 6a ff ff ff       	call   80491b0 <skip>
 8049246:	85 c0                	test   %eax,%eax
 8049248:	75 15                	jne    804925f <read_line+0x63>
 804924a:	83 c4 f4             	add    $0xfffffff4,%esp
 804924d:	68 60 9b 04 08       	push   $0x8049b60
 8049252:	e8 b9 f5 ff ff       	call   8048810 <printf@plt>
 8049257:	e8 a0 02 00 00       	call   80494fc <explode_bomb>
 804925c:	83 c4 10             	add    $0x10,%esp
 804925f:	a1 80 b4 04 08       	mov    0x804b480,%eax
 8049264:	8d 04 80             	lea    (%eax,%eax,4),%eax
 8049267:	c1 e0 04             	shl    $0x4,%eax
 804926a:	8d b8 80 b6 04 08    	lea    0x804b680(%eax),%edi
 8049270:	b0 00                	mov    $0x0,%al
 8049272:	fc                   	cld    
 8049273:	b9 ff ff ff ff       	mov    $0xffffffff,%ecx
 8049278:	f2 ae                	repnz scas %es:(%edi),%al
 804927a:	89 c8                	mov    %ecx,%eax
 804927c:	f7 d0                	not    %eax
 804927e:	8d 78 ff             	lea    -0x1(%eax),%edi
 8049281:	83 ff 4f             	cmp    $0x4f,%edi
 8049284:	75 12                	jne    8049298 <read_line+0x9c>
 8049286:	83 c4 f4             	add    $0xfffffff4,%esp
 8049289:	68 8a 9b 04 08       	push   $0x8049b8a
 804928e:	e8 7d f5 ff ff       	call   8048810 <printf@plt>
 8049293:	e8 64 02 00 00       	call   80494fc <explode_bomb>
 8049298:	a1 80 b4 04 08       	mov    0x804b480,%eax
 804929d:	8d 04 80             	lea    (%eax,%eax,4),%eax
 80492a0:	c1 e0 04             	shl    $0x4,%eax
 80492a3:	c6 84 07 7f b6 04 08 	movb   $0x0,0x804b67f(%edi,%eax,1)
 80492aa:	00 
 80492ab:	05 80 b6 04 08       	add    $0x804b680,%eax
 80492b0:	ff 05 80 b4 04 08    	incl   0x804b480
 80492b6:	8b 7d e8             	mov    -0x18(%ebp),%edi
 80492b9:	89 ec                	mov    %ebp,%esp
 80492bb:	5d                   	pop    %ebp
 80492bc:	c3                   	ret    
 80492bd:	8d 76 00             	lea    0x0(%esi),%esi

080492c0 <send_msg>:
 80492c0:	55                   	push   %ebp
 80492c1:	89 e5                	mov    %esp,%ebp
 80492c3:	83 ec 5c             	sub    $0x5c,%esp
 80492c6:	57                   	push   %edi
 80492c7:	56                   	push   %esi
 80492c8:	53                   	push   %ebx
 80492c9:	83 c4 f4             	add    $0xfffffff4,%esp
 80492cc:	6a 00                	push   $0x0
 80492ce:	e8 bd f5 ff ff       	call   8048890 <dup@plt>
 80492d3:	89 c7                	mov    %eax,%edi
 80492d5:	83 c4 10             	add    $0x10,%esp
 80492d8:	83 ff ff             	cmp    $0xffffffff,%edi
 80492db:	75 17                	jne    80492f4 <send_msg+0x34>
 80492dd:	83 c4 f4             	add    $0xfffffff4,%esp
 80492e0:	68 a6 9b 04 08       	push   $0x8049ba6
 80492e5:	e8 26 f5 ff ff       	call   8048810 <printf@plt>
 80492ea:	83 c4 f4             	add    $0xfffffff4,%esp
 80492ed:	6a 08                	push   $0x8
 80492ef:	e8 5c f5 ff ff       	call   8048850 <exit@plt>
 80492f4:	83 c4 f4             	add    $0xfffffff4,%esp
 80492f7:	6a 00                	push   $0x0
 80492f9:	e8 32 f4 ff ff       	call   8048730 <close@plt>
 80492fe:	83 c4 10             	add    $0x10,%esp
 8049301:	83 f8 ff             	cmp    $0xffffffff,%eax
 8049304:	75 1a                	jne    8049320 <send_msg+0x60>
 8049306:	83 c4 f4             	add    $0xfffffff4,%esp
 8049309:	68 bb 9b 04 08       	push   $0x8049bbb
 804930e:	e8 fd f4 ff ff       	call   8048810 <printf@plt>
 8049313:	83 c4 f4             	add    $0xfffffff4,%esp
 8049316:	6a 08                	push   $0x8
 8049318:	e8 33 f5 ff ff       	call   8048850 <exit@plt>
 804931d:	8d 76 00             	lea    0x0(%esi),%esi
 8049320:	e8 2b f4 ff ff       	call   8048750 <tmpfile@plt>
 8049325:	89 c6                	mov    %eax,%esi
 8049327:	85 f6                	test   %esi,%esi
 8049329:	75 17                	jne    8049342 <send_msg+0x82>
 804932b:	83 c4 f4             	add    $0xfffffff4,%esp
 804932e:	68 cf 9b 04 08       	push   $0x8049bcf
 8049333:	e8 d8 f4 ff ff       	call   8048810 <printf@plt>
 8049338:	83 c4 f4             	add    $0xfffffff4,%esp
 804933b:	6a 08                	push   $0x8
 804933d:	e8 0e f5 ff ff       	call   8048850 <exit@plt>
 8049342:	83 c4 f8             	add    $0xfffffff8,%esp
 8049345:	68 e5 9b 04 08       	push   $0x8049be5
 804934a:	56                   	push   %esi
 804934b:	e8 f0 f3 ff ff       	call   8048740 <fprintf@plt>
 8049350:	83 c4 f8             	add    $0xfffffff8,%esp
 8049353:	68 01 9c 04 08       	push   $0x8049c01
 8049358:	56                   	push   %esi
 8049359:	e8 e2 f3 ff ff       	call   8048740 <fprintf@plt>
 804935e:	83 c4 20             	add    $0x20,%esp
 8049361:	83 c4 f4             	add    $0xfffffff4,%esp
 8049364:	6a 00                	push   $0x0
 8049366:	e8 55 f5 ff ff       	call   80488c0 <cuserid@plt>
 804936b:	83 c4 10             	add    $0x10,%esp
 804936e:	85 c0                	test   %eax,%eax
 8049370:	75 1e                	jne    8049390 <send_msg+0xd0>
 8049372:	8d 45 b0             	lea    -0x50(%ebp),%eax
 8049375:	c7 00 6e 6f 62 6f    	movl   $0x6f626f6e,(%eax)
 804937b:	83 c0 04             	add    $0x4,%eax
 804937e:	66 c7 00 64 79       	movw   $0x7964,(%eax)
 8049383:	c6 40 02 00          	movb   $0x0,0x2(%eax)
 8049387:	eb 17                	jmp    80493a0 <send_msg+0xe0>
 8049389:	8d b4 26 00 00 00 00 	lea    0x0(%esi,%eiz,1),%esi
 8049390:	83 c4 f8             	add    $0xfffffff8,%esp
 8049393:	50                   	push   %eax
 8049394:	8d 45 b0             	lea    -0x50(%ebp),%eax
 8049397:	50                   	push   %eax
 8049398:	e8 33 f5 ff ff       	call   80488d0 <strcpy@plt>
 804939d:	83 c4 10             	add    $0x10,%esp
 80493a0:	83 c4 fc             	add    $0xfffffffc,%esp
 80493a3:	a1 80 b4 04 08       	mov    0x804b480,%eax
 80493a8:	50                   	push   %eax
 80493a9:	b8 12 9c 04 08       	mov    $0x8049c12,%eax
 80493ae:	83 7d 08 00          	cmpl   $0x0,0x8(%ebp)
 80493b2:	74 05                	je     80493b9 <send_msg+0xf9>
 80493b4:	b8 0a 9c 04 08       	mov    $0x8049c0a,%eax
 80493b9:	50                   	push   %eax
 80493ba:	8d 45 b0             	lea    -0x50(%ebp),%eax
 80493bd:	50                   	push   %eax
 80493be:	a1 00 ae 04 08       	mov    0x804ae00,%eax
 80493c3:	50                   	push   %eax
 80493c4:	68 20 ae 04 08       	push   $0x804ae20
 80493c9:	68 1b 9c 04 08       	push   $0x8049c1b
 80493ce:	56                   	push   %esi
 80493cf:	e8 6c f3 ff ff       	call   8048740 <fprintf@plt>
 80493d4:	31 d2                	xor    %edx,%edx
 80493d6:	83 c4 20             	add    $0x20,%esp
 80493d9:	3b 15 80 b4 04 08    	cmp    0x804b480,%edx
 80493df:	7d 3a                	jge    804941b <send_msg+0x15b>
 80493e1:	83 c4 fc             	add    $0xfffffffc,%esp
 80493e4:	8d 04 92             	lea    (%edx,%edx,4),%eax
 80493e7:	c1 e0 04             	shl    $0x4,%eax
 80493ea:	05 80 b6 04 08       	add    $0x804b680,%eax
 80493ef:	50                   	push   %eax
 80493f0:	8d 5a 01             	lea    0x1(%edx),%ebx
 80493f3:	53                   	push   %ebx
 80493f4:	8d 45 b0             	lea    -0x50(%ebp),%eax
 80493f7:	50                   	push   %eax
 80493f8:	a1 00 ae 04 08       	mov    0x804ae00,%eax
 80493fd:	50                   	push   %eax
 80493fe:	68 20 ae 04 08       	push   $0x804ae20
 8049403:	68 37 9c 04 08       	push   $0x8049c37
 8049408:	56                   	push   %esi
 8049409:	e8 32 f3 ff ff       	call   8048740 <fprintf@plt>
 804940e:	83 c4 20             	add    $0x20,%esp
 8049411:	89 da                	mov    %ebx,%edx
 8049413:	3b 15 80 b4 04 08    	cmp    0x804b480,%edx
 8049419:	7c c6                	jl     80493e1 <send_msg+0x121>
 804941b:	83 c4 f4             	add    $0xfffffff4,%esp
 804941e:	56                   	push   %esi
 804941f:	e8 7c f3 ff ff       	call   80487a0 <rewind@plt>
 8049424:	83 c4 f4             	add    $0xfffffff4,%esp
 8049427:	68 81 9a 04 08       	push   $0x8049a81
 804942c:	68 53 9c 04 08       	push   $0x8049c53
 8049431:	68 58 9c 04 08       	push   $0x8049c58
 8049436:	68 6f 9c 04 08       	push   $0x8049c6f
 804943b:	68 c0 bc 04 08       	push   $0x804bcc0
 8049440:	e8 5b f4 ff ff       	call   80488a0 <sprintf@plt>
 8049445:	83 c4 30             	add    $0x30,%esp
 8049448:	83 c4 f4             	add    $0xfffffff4,%esp
 804944b:	68 c0 bc 04 08       	push   $0x804bcc0
 8049450:	e8 5b f3 ff ff       	call   80487b0 <system@plt>
 8049455:	83 c4 10             	add    $0x10,%esp
 8049458:	85 c0                	test   %eax,%eax
 804945a:	74 17                	je     8049473 <send_msg+0x1b3>
 804945c:	83 c4 f4             	add    $0xfffffff4,%esp
 804945f:	68 78 9c 04 08       	push   $0x8049c78
 8049464:	e8 a7 f3 ff ff       	call   8048810 <printf@plt>
 8049469:	83 c4 f4             	add    $0xfffffff4,%esp
 804946c:	6a 08                	push   $0x8
 804946e:	e8 dd f3 ff ff       	call   8048850 <exit@plt>
 8049473:	83 c4 f4             	add    $0xfffffff4,%esp
 8049476:	56                   	push   %esi
 8049477:	e8 a4 f3 ff ff       	call   8048820 <fclose@plt>
 804947c:	83 c4 10             	add    $0x10,%esp
 804947f:	85 c0                	test   %eax,%eax
 8049481:	74 1d                	je     80494a0 <send_msg+0x1e0>
 8049483:	83 c4 f4             	add    $0xfffffff4,%esp
 8049486:	68 93 9c 04 08       	push   $0x8049c93
 804948b:	e8 80 f3 ff ff       	call   8048810 <printf@plt>
 8049490:	83 c4 f4             	add    $0xfffffff4,%esp
 8049493:	6a 08                	push   $0x8
 8049495:	e8 b6 f3 ff ff       	call   8048850 <exit@plt>
 804949a:	8d b6 00 00 00 00    	lea    0x0(%esi),%esi
 80494a0:	83 c4 f4             	add    $0xfffffff4,%esp
 80494a3:	57                   	push   %edi
 80494a4:	e8 e7 f3 ff ff       	call   8048890 <dup@plt>
 80494a9:	83 c4 10             	add    $0x10,%esp
 80494ac:	85 c0                	test   %eax,%eax
 80494ae:	74 17                	je     80494c7 <send_msg+0x207>
 80494b0:	83 c4 f4             	add    $0xfffffff4,%esp
 80494b3:	68 ad 9c 04 08       	push   $0x8049cad
 80494b8:	e8 53 f3 ff ff       	call   8048810 <printf@plt>
 80494bd:	83 c4 f4             	add    $0xfffffff4,%esp
 80494c0:	6a 08                	push   $0x8
 80494c2:	e8 89 f3 ff ff       	call   8048850 <exit@plt>
 80494c7:	83 c4 f4             	add    $0xfffffff4,%esp
 80494ca:	57                   	push   %edi
 80494cb:	e8 60 f2 ff ff       	call   8048730 <close@plt>
 80494d0:	83 c4 10             	add    $0x10,%esp
 80494d3:	85 c0                	test   %eax,%eax
 80494d5:	74 19                	je     80494f0 <send_msg+0x230>
 80494d7:	83 c4 f4             	add    $0xfffffff4,%esp
 80494da:	68 c9 9c 04 08       	push   $0x8049cc9
 80494df:	e8 2c f3 ff ff       	call   8048810 <printf@plt>
 80494e4:	83 c4 f4             	add    $0xfffffff4,%esp
 80494e7:	6a 08                	push   $0x8
 80494e9:	e8 62 f3 ff ff       	call   8048850 <exit@plt>
 80494ee:	89 f6                	mov    %esi,%esi
 80494f0:	8d 65 98             	lea    -0x68(%ebp),%esp
 80494f3:	5b                   	pop    %ebx
 80494f4:	5e                   	pop    %esi
 80494f5:	5f                   	pop    %edi
 80494f6:	89 ec                	mov    %ebp,%esp
 80494f8:	5d                   	pop    %ebp
 80494f9:	c3                   	ret    
 80494fa:	89 f6                	mov    %esi,%esi

080494fc <explode_bomb>:
 80494fc:	55                   	push   %ebp
 80494fd:	89 e5                	mov    %esp,%ebp
 80494ff:	83 ec 08             	sub    $0x8,%esp
 8049502:	83 c4 f4             	add    $0xfffffff4,%esp
 8049505:	68 e1 9c 04 08       	push   $0x8049ce1
 804950a:	e8 01 f3 ff ff       	call   8048810 <printf@plt>
 804950f:	83 c4 f4             	add    $0xfffffff4,%esp
 8049512:	68 eb 9c 04 08       	push   $0x8049ceb
 8049517:	e8 f4 f2 ff ff       	call   8048810 <printf@plt>
 804951c:	83 c4 20             	add    $0x20,%esp
 804951f:	83 c4 f4             	add    $0xfffffff4,%esp
 8049522:	6a 08                	push   $0x8
 8049524:	e8 27 f3 ff ff       	call   8048850 <exit@plt>
 8049529:	8d 76 00             	lea    0x0(%esi),%esi

0804952c <phase_defused>:
 804952c:	55                   	push   %ebp
 804952d:	89 e5                	mov    %esp,%ebp
 804952f:	83 ec 64             	sub    $0x64,%esp
 8049532:	53                   	push   %ebx
 8049533:	83 3d 80 b4 04 08 06 	cmpl   $0x6,0x804b480
 804953a:	75 63                	jne    804959f <phase_defused+0x73>
 804953c:	8d 5d b0             	lea    -0x50(%ebp),%ebx
 804953f:	53                   	push   %ebx
 8049540:	8d 45 ac             	lea    -0x54(%ebp),%eax
 8049543:	50                   	push   %eax
 8049544:	68 03 9d 04 08       	push   $0x8049d03
 8049549:	68 70 b7 04 08       	push   $0x804b770
 804954e:	e8 0d f3 ff ff       	call   8048860 <sscanf@plt>
 8049553:	83 c4 10             	add    $0x10,%esp
 8049556:	83 f8 02             	cmp    $0x2,%eax
 8049559:	75 37                	jne    8049592 <phase_defused+0x66>
 804955b:	83 c4 f8             	add    $0xfffffff8,%esp
 804955e:	68 09 9d 04 08       	push   $0x8049d09
 8049563:	53                   	push   %ebx
 8049564:	e8 c7 fa ff ff       	call   8049030 <strings_not_equal>
 8049569:	83 c4 10             	add    $0x10,%esp
 804956c:	85 c0                	test   %eax,%eax
 804956e:	75 22                	jne    8049592 <phase_defused+0x66>
 8049570:	83 c4 f4             	add    $0xfffffff4,%esp
 8049573:	68 20 9d 04 08       	push   $0x8049d20
 8049578:	e8 93 f2 ff ff       	call   8048810 <printf@plt>
 804957d:	83 c4 f4             	add    $0xfffffff4,%esp
 8049580:	68 60 9d 04 08       	push   $0x8049d60
 8049585:	e8 86 f2 ff ff       	call   8048810 <printf@plt>
 804958a:	83 c4 20             	add    $0x20,%esp
 804958d:	e8 56 f9 ff ff       	call   8048ee8 <secret_phase>
 8049592:	83 c4 f4             	add    $0xfffffff4,%esp
 8049595:	68 a0 9d 04 08       	push   $0x8049da0
 804959a:	e8 71 f2 ff ff       	call   8048810 <printf@plt>
 804959f:	8b 5d 98             	mov    -0x68(%ebp),%ebx
 80495a2:	89 ec                	mov    %ebp,%esp
 80495a4:	5d                   	pop    %ebp
 80495a5:	c3                   	ret    
 80495a6:	90                   	nop
 80495a7:	90                   	nop
 80495a8:	90                   	nop
 80495a9:	90                   	nop
 80495aa:	90                   	nop
 80495ab:	90                   	nop
 80495ac:	90                   	nop
 80495ad:	90                   	nop
 80495ae:	90                   	nop
 80495af:	90                   	nop

080495b0 <__do_global_ctors_aux>:
 80495b0:	55                   	push   %ebp
 80495b1:	89 e5                	mov    %esp,%ebp
 80495b3:	83 ec 14             	sub    $0x14,%esp
 80495b6:	53                   	push   %ebx
 80495b7:	bb 08 b5 04 08       	mov    $0x804b508,%ebx
 80495bc:	83 3d 08 b5 04 08 ff 	cmpl   $0xffffffff,0x804b508
 80495c3:	74 0c                	je     80495d1 <__do_global_ctors_aux+0x21>
 80495c5:	8b 03                	mov    (%ebx),%eax
 80495c7:	ff d0                	call   *%eax
 80495c9:	83 c3 fc             	add    $0xfffffffc,%ebx
 80495cc:	83 3b ff             	cmpl   $0xffffffff,(%ebx)
 80495cf:	75 f4                	jne    80495c5 <__do_global_ctors_aux+0x15>
 80495d1:	5b                   	pop    %ebx
 80495d2:	89 ec                	mov    %ebp,%esp
 80495d4:	5d                   	pop    %ebp
 80495d5:	c3                   	ret    
 80495d6:	89 f6                	mov    %esi,%esi

080495d8 <init_dummy>:
 80495d8:	55                   	push   %ebp
 80495d9:	89 e5                	mov    %esp,%ebp
 80495db:	83 ec 08             	sub    $0x8,%esp
 80495de:	89 ec                	mov    %ebp,%esp
 80495e0:	5d                   	pop    %ebp
 80495e1:	c3                   	ret    
 80495e2:	90                   	nop
 80495e3:	90                   	nop

Disassembly of section .fini:

080495e4 <_fini>:
 80495e4:	55                   	push   %ebp
 80495e5:	89 e5                	mov    %esp,%ebp
 80495e7:	53                   	push   %ebx
 80495e8:	e8 00 00 00 00       	call   80495ed <_fini+0x9>
 80495ed:	5b                   	pop    %ebx
 80495ee:	81 c3 2b 1f 00 00    	add    $0x1f2b,%ebx
 80495f4:	e8 17 f3 ff ff       	call   8048910 <__do_global_dtors_aux>
 80495f9:	8b 5d fc             	mov    -0x4(%ebp),%ebx
 80495fc:	c9                   	leave  
 80495fd:	c3                   	ret    
